(iTools.Systematics.sys_classes
SysSet
p0
(dp1
S'channels'
p2
(lp3
(iTools.Systematics.sys_classes
LimitChannel
p4
(dp5
S'category'
p6
S'wh'
p7
sS'control_region'
p8
S'SR'
p9
sS'onebin'
p10
I00
sS'samples'
p11
(lp12
(iTools.Systematics.sys_classes
Sample
p13
(dp14
S'shape'
p15
(lp16
(iTools.Systematics.sys_classes
Sys
p17
(dp18
S'name'
p19
S'ATLAS_BTag_BEFF'
p20
sS'weight'
p21
I01
sS'lo'
p22
S'ATLAS_BTag_BEFF_DOWN'
p23
sS'activated'
p24
I01
sS'hi'
p25
S'ATLAS_BTag_BEFF_UP'
p26
sS'cancelled'
p27
I00
sba(iTools.Systematics.sys_classes
Sys
p28
(dp29
g19
S'ATLAS_BTag_CEFF'
p30
sg21
I01
sg22
S'ATLAS_BTag_CEFF_DOWN'
p31
sg24
I01
sg25
S'ATLAS_BTag_CEFF_UP'
p32
sg27
I00
sba(iTools.Systematics.sys_classes
Sys
p33
(dp34
g19
S'ATLAS_BTag_LEFF'
p35
sg21
I01
sg22
S'ATLAS_BTag_LEFF_DOWN'
p36
sg24
I01
sg25
S'ATLAS_BTag_LEFF_UP'
p37
sg27
I00
sba(iTools.Systematics.sys_classes
Sys
p38
(dp39
g19
S'ATLAS_EL_SCALE_ZEE'
p40
sg21
I00
sg22
S'ATLAS_EL_SCALE_ZEE_DOWN'
p41
sg24
I01
sg25
S'ATLAS_EL_SCALE_ZEE_UP'
p42
sg27
I00
sba(iTools.Systematics.sys_classes
Sys
p43
(dp44
g19
S'ATLAS_EL_SCALE_R12'
p45
sg21
I00
sg22
S'ATLAS_EL_SCALE_R12_DOWN'
p46
sg24
I01
sg25
S'ATLAS_EL_SCALE_R12_UP'
p47
sg27
I00
sba(iTools.Systematics.sys_classes
Sys
p48
(dp49
g19
S'ATLAS_EL_SCALE_PS'
p50
sg21
I00
sg22
S'ATLAS_EL_SCALE_PS_DOWN'
p51
sg24
I01
sg25
S'ATLAS_EL_SCALE_PS_UP'
p52
sg27
I00
sba(iTools.Systematics.sys_classes
Sys
p53
(dp54
g19
S'ATLAS_EL_SCALE_LOWPT'
p55
sg21
I00
sg22
S'ATLAS_EL_SCALE_LOWPT_DOWN'
p56
sg24
I01
sg25
S'ATLAS_EL_SCALE_LOWPT_UP'
p57
sg27
I00
sba(iTools.Systematics.sys_classes
Sys
p58
(dp59
g19
S'ATLAS_EL_RES'
p60
sg21
I01
sg22
S'ATLAS_EL_RES_DOWN'
p61
sg24
I01
sg25
S'ATLAS_EL_RES_UP'
p62
sg27
I00
sba(iTools.Systematics.sys_classes
Sys
p63
(dp64
g19
S'ATLAS_EL_EFF_ID'
p65
sg21
I01
sg22
S'ATLAS_EL_EFF_ID_DOWN'
p66
sg24
I01
sg25
S'ATLAS_EL_EFF_ID_UP'
p67
sg27
I00
sba(iTools.Systematics.sys_classes
Sys
p68
(dp69
g19
S'ATLAS_EL_EFF_ISO'
p70
sg21
I01
sg22
S'ATLAS_EL_EFF_ISO_DOWN'
p71
sg24
I01
sg25
S'ATLAS_EL_EFF_ISO_UP'
p72
sg27
I00
sba(iTools.Systematics.sys_classes
Sys
p73
(dp74
g19
S'ATLAS_EL_EFF_TRIG'
p75
sg21
I01
sg22
S'ATLAS_EL_EFF_TRIG_DOWN'
p76
sg24
I01
sg25
S'ATLAS_EL_EFF_TRIG_UP'
p77
sg27
I00
sba(iTools.Systematics.sys_classes
Sys
p78
(dp79
g19
S'ATLAS_JER_2012'
p80
sg21
I00
sg22
S'ATLAS_JER_2012_DOWN'
p81
sg24
I01
sg25
S'ATLAS_JER_2012_UP'
p82
sg27
I00
sba(iTools.Systematics.sys_classes
Sys
p83
(dp84
g19
S'ATLAS_JES_2012_Statistical1'
p85
sg21
I00
sg22
S'ATLAS_JES_2012_Statistical1_DOWN'
p86
sg24
I01
sg25
S'ATLAS_JES_2012_Statistical1_UP'
p87
sg27
I00
sba(iTools.Systematics.sys_classes
Sys
p88
(dp89
g19
S'ATLAS_JES_2012_Modelling1'
p90
sg21
I00
sg22
S'ATLAS_JES_2012_Modelling1_DOWN'
p91
sg24
I01
sg25
S'ATLAS_JES_2012_Modelling1_UP'
p92
sg27
I00
sba(iTools.Systematics.sys_classes
Sys
p93
(dp94
g19
S'ATLAS_JES_2012_Detector1'
p95
sg21
I00
sg22
S'ATLAS_JES_2012_Detector1_DOWN'
p96
sg24
I01
sg25
S'ATLAS_JES_2012_Detector1_UP'
p97
sg27
I00
sba(iTools.Systematics.sys_classes
Sys
p98
(dp99
g19
S'ATLAS_JES_2012_EtaModelling'
p100
sg21
I00
sg22
S'ATLAS_JES_2012_EtaModelling_DOWN'
p101
sg24
I01
sg25
S'ATLAS_JES_2012_EtaModelling_UP'
p102
sg27
I00
sba(iTools.Systematics.sys_classes
Sys
p103
(dp104
g19
S'ATLAS_JES_2012_Eta_StatMethod'
p105
sg21
I00
sg22
S'ATLAS_JES_2012_Eta_StatMethod_DOWN'
p106
sg24
I01
sg25
S'ATLAS_JES_2012_Eta_StatMethod_UP'
p107
sg27
I00
sba(iTools.Systematics.sys_classes
Sys
p108
(dp109
g19
S'ATLAS_JES_2012_PileRho_TAU'
p110
sg21
I00
sg22
S'ATLAS_JES_2012_PileRho_TAU_DOWN'
p111
sg24
I01
sg25
S'ATLAS_JES_2012_PileRho_TAU_UP'
p112
sg27
I00
sba(iTools.Systematics.sys_classes
Sys
p113
(dp114
g19
S'ATLAS_JES_NPV'
p115
sg21
I00
sg22
S'ATLAS_JES_NPV_DOWN'
p116
sg24
I01
sg25
S'ATLAS_JES_NPV_UP'
p117
sg27
I00
sba(iTools.Systematics.sys_classes
Sys
p118
(dp119
g19
S'ATLAS_JES_Mu'
p120
sg21
I00
sg22
S'ATLAS_JES_Mu_DOWN'
p121
sg24
I01
sg25
S'ATLAS_JES_Mu_UP'
p122
sg27
I00
sba(iTools.Systematics.sys_classes
Sys
p123
(dp124
g19
S'ATLAS_JES_FlavComp_TAU'
p125
sg21
I00
sg22
S'ATLAS_JES_FlavComp_TAU_DOWN'
p126
sg24
I01
sg25
S'ATLAS_JES_FlavComp_TAU_UP'
p127
sg27
I00
sba(iTools.Systematics.sys_classes
Sys
p128
(dp129
g19
S'ATLAS_JES_FlavResp'
p130
sg21
I00
sg22
S'ATLAS_JES_FlavResp_DOWN'
p131
sg24
I01
sg25
S'ATLAS_JES_FlavResp_UP'
p132
sg27
I00
sba(iTools.Systematics.sys_classes
Sys
p133
(dp134
g19
S'ATLAS_JES_Flavb'
p135
sg21
I00
sg22
S'ATLAS_JES_Flavb_DOWN'
p136
sg24
I01
sg25
S'ATLAS_JES_Flavb_UP'
p137
sg27
I00
sba(iTools.Systematics.sys_classes
Sys
p138
(dp139
g19
S'ATLAS_JVF_2012'
p140
sg21
I00
sg22
S'ATLAS_JVF_2012_DOWN'
p141
sg24
I01
sg25
S'ATLAS_JVF_2012_UP'
p142
sg27
I00
sba(iTools.Systematics.sys_classes
Sys
p143
(dp144
g19
S'ATLAS_MET_RESOSOFT'
p145
sg21
I00
sg22
S'ATLAS_MET_RESOSOFT_DOWN'
p146
sg24
I01
sg25
S'ATLAS_MET_RESOSOFT_UP'
p147
sg27
I00
sba(iTools.Systematics.sys_classes
Sys
p148
(dp149
g19
S'ATLAS_MET_SCALESOFT'
p150
sg21
I00
sg22
S'ATLAS_MET_SCALESOFT_DOWN'
p151
sg24
I01
sg25
S'ATLAS_MET_SCALESOFT_UP'
p152
sg27
I00
sba(iTools.Systematics.sys_classes
Sys
p153
(dp154
g19
S'ATLAS_MU_MS'
p155
sg21
I00
sg22
S'ATLAS_MU_MS_DOWN'
p156
sg24
I01
sg25
S'ATLAS_MU_MS_UP'
p157
sg27
I00
sba(iTools.Systematics.sys_classes
Sys
p158
(dp159
g19
S'ATLAS_MU_EFF_ID'
p160
sg21
I01
sg22
S'ATLAS_MU_EFF_ID_DOWN'
p161
sg24
I01
sg25
S'ATLAS_MU_EFF_ID_UP'
p162
sg27
I00
sba(iTools.Systematics.sys_classes
Sys
p163
(dp164
g19
S'ATLAS_MU_EFF_ISO'
p165
sg21
I01
sg22
S'ATLAS_MU_EFF_ISO_DOWN'
p166
sg24
I01
sg25
S'ATLAS_MU_EFF_ISO_UP'
p167
sg27
I00
sba(iTools.Systematics.sys_classes
Sys
p168
(dp169
g19
S'ATLAS_MU_EFF_TRIG'
p170
sg21
I01
sg22
S'ATLAS_MU_EFF_TRIG_DOWN'
p171
sg24
I01
sg25
S'ATLAS_MU_EFF_TRIG_UP'
p172
sg27
I00
sba(iTools.Systematics.sys_classes
Sys
p173
(dp174
g19
S'ATLAS_PU_RESCALE_2012'
p175
sg21
I01
sg22
S'ATLAS_PU_RESCALE_2012_DOWN'
p176
sg24
I01
sg25
S'ATLAS_PU_RESCALE_2012_UP'
p177
sg27
I00
sba(iTools.Systematics.sys_classes
Sys
p178
(dp179
g19
S'ATLAS_TAU_EFAKE_2012'
p180
sg21
I01
sg22
S'ATLAS_TAU_EFAKE_2012_DOWN'
p181
sg24
I01
sg25
S'ATLAS_TAU_EFAKE_2012_UP'
p182
sg27
I00
sba(iTools.Systematics.sys_classes
Sys
p183
(dp184
g19
S'ATLAS_TAU_ID_2012'
p185
sg21
I01
sg22
S'ATLAS_TAU_ID_2012_DOWN'
p186
sg24
I01
sg25
S'ATLAS_TAU_ID_2012_UP'
p187
sg27
I00
sba(iTools.Systematics.sys_classes
Sys
p188
(dp189
g19
S'ATLAS_TAU_ID_STAT_2012'
p190
sg21
I01
sg22
S'ATLAS_TAU_ID_STAT_2012_DOWN'
p191
sg24
I01
sg25
S'ATLAS_TAU_ID_STAT_2012_UP'
p192
sg27
I00
sba(iTools.Systematics.sys_classes
Sys
p193
(dp194
g19
S'ATLAS_TES_TRUE_2012'
p195
sg21
I00
sg22
S'ATLAS_TES_TRUE_2012_DOWN'
p196
sg24
I01
sg25
S'ATLAS_TES_TRUE_2012_UP'
p197
sg27
I00
sbasS'overall'
p198
(lp199
(iTools.Systematics.sys_classes
Sys
p200
(dp201
g19
S'ATLAS_BR_tautau'
p202
sg21
I00
sg22
F0.93300000000000005
sg24
I01
sg25
F1.069
sg27
I00
sba(iTools.Systematics.sys_classes
Sys
p203
(dp204
g19
S'ATLAS_LUMI_2012'
p205
sg21
I00
sg22
F0.97199999999999998
sg24
I01
sg25
F1.028
sg27
I00
sba(iTools.Systematics.sys_classes
Sys
p206
(dp207
g19
S'QCDscale_WH'
p208
sg21
I00
sg22
F0.98999999999999999
sg24
I01
sg25
F1.01
sg27
I00
sba(iTools.Systematics.sys_classes
Sys
p209
(dp210
g19
S'ATLAS_UE_VH'
p211
sg21
I00
sg22
F0.98999999999999999
sg24
I01
sg25
F1.01
sg27
I00
sba(iTools.Systematics.sys_classes
Sys
p212
(dp213
g19
S'pdf_Higgs_WH'
p214
sg21
I00
sg22
F0.97699999999999998
sg24
I01
sg25
F1.0229999999999999
sg27
I00
sbasg19
S'WH100'
p215
sba(iTools.Systematics.sys_classes
Sample
p216
(dp217
g15
(lp218
(iTools.Systematics.sys_classes
Sys
p219
(dp220
g19
g20
sg21
I01
sg22
S'ATLAS_BTag_BEFF_DOWN'
p221
sg24
I01
sg25
S'ATLAS_BTag_BEFF_UP'
p222
sg27
I00
sba(iTools.Systematics.sys_classes
Sys
p223
(dp224
g19
g30
sg21
I01
sg22
S'ATLAS_BTag_CEFF_DOWN'
p225
sg24
I01
sg25
S'ATLAS_BTag_CEFF_UP'
p226
sg27
I00
sba(iTools.Systematics.sys_classes
Sys
p227
(dp228
g19
g35
sg21
I01
sg22
S'ATLAS_BTag_LEFF_DOWN'
p229
sg24
I01
sg25
S'ATLAS_BTag_LEFF_UP'
p230
sg27
I00
sba(iTools.Systematics.sys_classes
Sys
p231
(dp232
g19
g40
sg21
I00
sg22
S'ATLAS_EL_SCALE_ZEE_DOWN'
p233
sg24
I01
sg25
S'ATLAS_EL_SCALE_ZEE_UP'
p234
sg27
I00
sba(iTools.Systematics.sys_classes
Sys
p235
(dp236
g19
g45
sg21
I00
sg22
S'ATLAS_EL_SCALE_R12_DOWN'
p237
sg24
I01
sg25
S'ATLAS_EL_SCALE_R12_UP'
p238
sg27
I00
sba(iTools.Systematics.sys_classes
Sys
p239
(dp240
g19
g50
sg21
I00
sg22
S'ATLAS_EL_SCALE_PS_DOWN'
p241
sg24
I01
sg25
S'ATLAS_EL_SCALE_PS_UP'
p242
sg27
I00
sba(iTools.Systematics.sys_classes
Sys
p243
(dp244
g19
g55
sg21
I00
sg22
S'ATLAS_EL_SCALE_LOWPT_DOWN'
p245
sg24
I01
sg25
S'ATLAS_EL_SCALE_LOWPT_UP'
p246
sg27
I00
sba(iTools.Systematics.sys_classes
Sys
p247
(dp248
g19
g60
sg21
I01
sg22
S'ATLAS_EL_RES_DOWN'
p249
sg24
I01
sg25
S'ATLAS_EL_RES_UP'
p250
sg27
I00
sba(iTools.Systematics.sys_classes
Sys
p251
(dp252
g19
g65
sg21
I01
sg22
S'ATLAS_EL_EFF_ID_DOWN'
p253
sg24
I01
sg25
S'ATLAS_EL_EFF_ID_UP'
p254
sg27
I00
sba(iTools.Systematics.sys_classes
Sys
p255
(dp256
g19
g70
sg21
I01
sg22
S'ATLAS_EL_EFF_ISO_DOWN'
p257
sg24
I01
sg25
S'ATLAS_EL_EFF_ISO_UP'
p258
sg27
I00
sba(iTools.Systematics.sys_classes
Sys
p259
(dp260
g19
g75
sg21
I01
sg22
S'ATLAS_EL_EFF_TRIG_DOWN'
p261
sg24
I01
sg25
S'ATLAS_EL_EFF_TRIG_UP'
p262
sg27
I00
sba(iTools.Systematics.sys_classes
Sys
p263
(dp264
g19
g80
sg21
I00
sg22
S'ATLAS_JER_2012_DOWN'
p265
sg24
I01
sg25
S'ATLAS_JER_2012_UP'
p266
sg27
I00
sba(iTools.Systematics.sys_classes
Sys
p267
(dp268
g19
g85
sg21
I00
sg22
S'ATLAS_JES_2012_Statistical1_DOWN'
p269
sg24
I01
sg25
S'ATLAS_JES_2012_Statistical1_UP'
p270
sg27
I00
sba(iTools.Systematics.sys_classes
Sys
p271
(dp272
g19
g90
sg21
I00
sg22
S'ATLAS_JES_2012_Modelling1_DOWN'
p273
sg24
I01
sg25
S'ATLAS_JES_2012_Modelling1_UP'
p274
sg27
I00
sba(iTools.Systematics.sys_classes
Sys
p275
(dp276
g19
g95
sg21
I00
sg22
S'ATLAS_JES_2012_Detector1_DOWN'
p277
sg24
I01
sg25
S'ATLAS_JES_2012_Detector1_UP'
p278
sg27
I00
sba(iTools.Systematics.sys_classes
Sys
p279
(dp280
g19
g100
sg21
I00
sg22
S'ATLAS_JES_2012_EtaModelling_DOWN'
p281
sg24
I01
sg25
S'ATLAS_JES_2012_EtaModelling_UP'
p282
sg27
I00
sba(iTools.Systematics.sys_classes
Sys
p283
(dp284
g19
g105
sg21
I00
sg22
S'ATLAS_JES_2012_Eta_StatMethod_DOWN'
p285
sg24
I01
sg25
S'ATLAS_JES_2012_Eta_StatMethod_UP'
p286
sg27
I00
sba(iTools.Systematics.sys_classes
Sys
p287
(dp288
g19
g110
sg21
I00
sg22
S'ATLAS_JES_2012_PileRho_TAU_DOWN'
p289
sg24
I01
sg25
S'ATLAS_JES_2012_PileRho_TAU_UP'
p290
sg27
I00
sba(iTools.Systematics.sys_classes
Sys
p291
(dp292
g19
g115
sg21
I00
sg22
S'ATLAS_JES_NPV_DOWN'
p293
sg24
I01
sg25
S'ATLAS_JES_NPV_UP'
p294
sg27
I00
sba(iTools.Systematics.sys_classes
Sys
p295
(dp296
g19
g120
sg21
I00
sg22
S'ATLAS_JES_Mu_DOWN'
p297
sg24
I01
sg25
S'ATLAS_JES_Mu_UP'
p298
sg27
I00
sba(iTools.Systematics.sys_classes
Sys
p299
(dp300
g19
g125
sg21
I00
sg22
S'ATLAS_JES_FlavComp_TAU_DOWN'
p301
sg24
I01
sg25
S'ATLAS_JES_FlavComp_TAU_UP'
p302
sg27
I00
sba(iTools.Systematics.sys_classes
Sys
p303
(dp304
g19
g130
sg21
I00
sg22
S'ATLAS_JES_FlavResp_DOWN'
p305
sg24
I01
sg25
S'ATLAS_JES_FlavResp_UP'
p306
sg27
I00
sba(iTools.Systematics.sys_classes
Sys
p307
(dp308
g19
g135
sg21
I00
sg22
S'ATLAS_JES_Flavb_DOWN'
p309
sg24
I01
sg25
S'ATLAS_JES_Flavb_UP'
p310
sg27
I00
sba(iTools.Systematics.sys_classes
Sys
p311
(dp312
g19
g140
sg21
I00
sg22
S'ATLAS_JVF_2012_DOWN'
p313
sg24
I01
sg25
S'ATLAS_JVF_2012_UP'
p314
sg27
I00
sba(iTools.Systematics.sys_classes
Sys
p315
(dp316
g19
g145
sg21
I00
sg22
S'ATLAS_MET_RESOSOFT_DOWN'
p317
sg24
I01
sg25
S'ATLAS_MET_RESOSOFT_UP'
p318
sg27
I00
sba(iTools.Systematics.sys_classes
Sys
p319
(dp320
g19
g150
sg21
I00
sg22
S'ATLAS_MET_SCALESOFT_DOWN'
p321
sg24
I01
sg25
S'ATLAS_MET_SCALESOFT_UP'
p322
sg27
I00
sba(iTools.Systematics.sys_classes
Sys
p323
(dp324
g19
g155
sg21
I00
sg22
S'ATLAS_MU_MS_DOWN'
p325
sg24
I01
sg25
S'ATLAS_MU_MS_UP'
p326
sg27
I00
sba(iTools.Systematics.sys_classes
Sys
p327
(dp328
g19
g160
sg21
I01
sg22
S'ATLAS_MU_EFF_ID_DOWN'
p329
sg24
I01
sg25
S'ATLAS_MU_EFF_ID_UP'
p330
sg27
I00
sba(iTools.Systematics.sys_classes
Sys
p331
(dp332
g19
g165
sg21
I01
sg22
S'ATLAS_MU_EFF_ISO_DOWN'
p333
sg24
I01
sg25
S'ATLAS_MU_EFF_ISO_UP'
p334
sg27
I00
sba(iTools.Systematics.sys_classes
Sys
p335
(dp336
g19
g170
sg21
I01
sg22
S'ATLAS_MU_EFF_TRIG_DOWN'
p337
sg24
I01
sg25
S'ATLAS_MU_EFF_TRIG_UP'
p338
sg27
I00
sba(iTools.Systematics.sys_classes
Sys
p339
(dp340
g19
g175
sg21
I01
sg22
S'ATLAS_PU_RESCALE_2012_DOWN'
p341
sg24
I01
sg25
S'ATLAS_PU_RESCALE_2012_UP'
p342
sg27
I00
sba(iTools.Systematics.sys_classes
Sys
p343
(dp344
g19
g180
sg21
I01
sg22
S'ATLAS_TAU_EFAKE_2012_DOWN'
p345
sg24
I01
sg25
S'ATLAS_TAU_EFAKE_2012_UP'
p346
sg27
I00
sba(iTools.Systematics.sys_classes
Sys
p347
(dp348
g19
g185
sg21
I01
sg22
S'ATLAS_TAU_ID_2012_DOWN'
p349
sg24
I01
sg25
S'ATLAS_TAU_ID_2012_UP'
p350
sg27
I00
sba(iTools.Systematics.sys_classes
Sys
p351
(dp352
g19
g190
sg21
I01
sg22
S'ATLAS_TAU_ID_STAT_2012_DOWN'
p353
sg24
I01
sg25
S'ATLAS_TAU_ID_STAT_2012_UP'
p354
sg27
I00
sba(iTools.Systematics.sys_classes
Sys
p355
(dp356
g19
g195
sg21
I00
sg22
S'ATLAS_TES_TRUE_2012_DOWN'
p357
sg24
I01
sg25
S'ATLAS_TES_TRUE_2012_UP'
p358
sg27
I00
sbasg198
(lp359
(iTools.Systematics.sys_classes
Sys
p360
(dp361
g19
g202
sg21
I00
sg22
F0.93300000000000005
sg24
I01
sg25
F1.0680000000000001
sg27
I00
sba(iTools.Systematics.sys_classes
Sys
p362
(dp363
g19
g205
sg21
I00
sg22
F0.97199999999999998
sg24
I01
sg25
F1.028
sg27
I00
sba(iTools.Systematics.sys_classes
Sys
p364
(dp365
g19
g208
sg21
I00
sg22
F0.98999999999999999
sg24
I01
sg25
F1.01
sg27
I00
sba(iTools.Systematics.sys_classes
Sys
p366
(dp367
g19
g211
sg21
I00
sg22
F0.98999999999999999
sg24
I01
sg25
F1.01
sg27
I00
sba(iTools.Systematics.sys_classes
Sys
p368
(dp369
g19
g214
sg21
I00
sg22
F0.97699999999999998
sg24
I01
sg25
F1.0229999999999999
sg27
I00
sbasg19
S'WH105'
p370
sba(iTools.Systematics.sys_classes
Sample
p371
(dp372
g15
(lp373
(iTools.Systematics.sys_classes
Sys
p374
(dp375
g19
g20
sg21
I01
sg22
S'ATLAS_BTag_BEFF_DOWN'
p376
sg24
I01
sg25
S'ATLAS_BTag_BEFF_UP'
p377
sg27
I00
sba(iTools.Systematics.sys_classes
Sys
p378
(dp379
g19
g30
sg21
I01
sg22
S'ATLAS_BTag_CEFF_DOWN'
p380
sg24
I01
sg25
S'ATLAS_BTag_CEFF_UP'
p381
sg27
I00
sba(iTools.Systematics.sys_classes
Sys
p382
(dp383
g19
g35
sg21
I01
sg22
S'ATLAS_BTag_LEFF_DOWN'
p384
sg24
I01
sg25
S'ATLAS_BTag_LEFF_UP'
p385
sg27
I00
sba(iTools.Systematics.sys_classes
Sys
p386
(dp387
g19
g40
sg21
I00
sg22
S'ATLAS_EL_SCALE_ZEE_DOWN'
p388
sg24
I01
sg25
S'ATLAS_EL_SCALE_ZEE_UP'
p389
sg27
I00
sba(iTools.Systematics.sys_classes
Sys
p390
(dp391
g19
g45
sg21
I00
sg22
S'ATLAS_EL_SCALE_R12_DOWN'
p392
sg24
I01
sg25
S'ATLAS_EL_SCALE_R12_UP'
p393
sg27
I00
sba(iTools.Systematics.sys_classes
Sys
p394
(dp395
g19
g50
sg21
I00
sg22
S'ATLAS_EL_SCALE_PS_DOWN'
p396
sg24
I01
sg25
S'ATLAS_EL_SCALE_PS_UP'
p397
sg27
I00
sba(iTools.Systematics.sys_classes
Sys
p398
(dp399
g19
g55
sg21
I00
sg22
S'ATLAS_EL_SCALE_LOWPT_DOWN'
p400
sg24
I01
sg25
S'ATLAS_EL_SCALE_LOWPT_UP'
p401
sg27
I00
sba(iTools.Systematics.sys_classes
Sys
p402
(dp403
g19
g60
sg21
I01
sg22
S'ATLAS_EL_RES_DOWN'
p404
sg24
I01
sg25
S'ATLAS_EL_RES_UP'
p405
sg27
I00
sba(iTools.Systematics.sys_classes
Sys
p406
(dp407
g19
g65
sg21
I01
sg22
S'ATLAS_EL_EFF_ID_DOWN'
p408
sg24
I01
sg25
S'ATLAS_EL_EFF_ID_UP'
p409
sg27
I00
sba(iTools.Systematics.sys_classes
Sys
p410
(dp411
g19
g70
sg21
I01
sg22
S'ATLAS_EL_EFF_ISO_DOWN'
p412
sg24
I01
sg25
S'ATLAS_EL_EFF_ISO_UP'
p413
sg27
I00
sba(iTools.Systematics.sys_classes
Sys
p414
(dp415
g19
g75
sg21
I01
sg22
S'ATLAS_EL_EFF_TRIG_DOWN'
p416
sg24
I01
sg25
S'ATLAS_EL_EFF_TRIG_UP'
p417
sg27
I00
sba(iTools.Systematics.sys_classes
Sys
p418
(dp419
g19
g80
sg21
I00
sg22
S'ATLAS_JER_2012_DOWN'
p420
sg24
I01
sg25
S'ATLAS_JER_2012_UP'
p421
sg27
I00
sba(iTools.Systematics.sys_classes
Sys
p422
(dp423
g19
g85
sg21
I00
sg22
S'ATLAS_JES_2012_Statistical1_DOWN'
p424
sg24
I01
sg25
S'ATLAS_JES_2012_Statistical1_UP'
p425
sg27
I00
sba(iTools.Systematics.sys_classes
Sys
p426
(dp427
g19
g90
sg21
I00
sg22
S'ATLAS_JES_2012_Modelling1_DOWN'
p428
sg24
I01
sg25
S'ATLAS_JES_2012_Modelling1_UP'
p429
sg27
I00
sba(iTools.Systematics.sys_classes
Sys
p430
(dp431
g19
g95
sg21
I00
sg22
S'ATLAS_JES_2012_Detector1_DOWN'
p432
sg24
I01
sg25
S'ATLAS_JES_2012_Detector1_UP'
p433
sg27
I00
sba(iTools.Systematics.sys_classes
Sys
p434
(dp435
g19
g100
sg21
I00
sg22
S'ATLAS_JES_2012_EtaModelling_DOWN'
p436
sg24
I01
sg25
S'ATLAS_JES_2012_EtaModelling_UP'
p437
sg27
I00
sba(iTools.Systematics.sys_classes
Sys
p438
(dp439
g19
g105
sg21
I00
sg22
S'ATLAS_JES_2012_Eta_StatMethod_DOWN'
p440
sg24
I01
sg25
S'ATLAS_JES_2012_Eta_StatMethod_UP'
p441
sg27
I00
sba(iTools.Systematics.sys_classes
Sys
p442
(dp443
g19
g110
sg21
I00
sg22
S'ATLAS_JES_2012_PileRho_TAU_DOWN'
p444
sg24
I01
sg25
S'ATLAS_JES_2012_PileRho_TAU_UP'
p445
sg27
I00
sba(iTools.Systematics.sys_classes
Sys
p446
(dp447
g19
g115
sg21
I00
sg22
S'ATLAS_JES_NPV_DOWN'
p448
sg24
I01
sg25
S'ATLAS_JES_NPV_UP'
p449
sg27
I00
sba(iTools.Systematics.sys_classes
Sys
p450
(dp451
g19
g120
sg21
I00
sg22
S'ATLAS_JES_Mu_DOWN'
p452
sg24
I01
sg25
S'ATLAS_JES_Mu_UP'
p453
sg27
I00
sba(iTools.Systematics.sys_classes
Sys
p454
(dp455
g19
g125
sg21
I00
sg22
S'ATLAS_JES_FlavComp_TAU_DOWN'
p456
sg24
I01
sg25
S'ATLAS_JES_FlavComp_TAU_UP'
p457
sg27
I00
sba(iTools.Systematics.sys_classes
Sys
p458
(dp459
g19
g130
sg21
I00
sg22
S'ATLAS_JES_FlavResp_DOWN'
p460
sg24
I01
sg25
S'ATLAS_JES_FlavResp_UP'
p461
sg27
I00
sba(iTools.Systematics.sys_classes
Sys
p462
(dp463
g19
g135
sg21
I00
sg22
S'ATLAS_JES_Flavb_DOWN'
p464
sg24
I01
sg25
S'ATLAS_JES_Flavb_UP'
p465
sg27
I00
sba(iTools.Systematics.sys_classes
Sys
p466
(dp467
g19
g140
sg21
I00
sg22
S'ATLAS_JVF_2012_DOWN'
p468
sg24
I01
sg25
S'ATLAS_JVF_2012_UP'
p469
sg27
I00
sba(iTools.Systematics.sys_classes
Sys
p470
(dp471
g19
g145
sg21
I00
sg22
S'ATLAS_MET_RESOSOFT_DOWN'
p472
sg24
I01
sg25
S'ATLAS_MET_RESOSOFT_UP'
p473
sg27
I00
sba(iTools.Systematics.sys_classes
Sys
p474
(dp475
g19
g150
sg21
I00
sg22
S'ATLAS_MET_SCALESOFT_DOWN'
p476
sg24
I01
sg25
S'ATLAS_MET_SCALESOFT_UP'
p477
sg27
I00
sba(iTools.Systematics.sys_classes
Sys
p478
(dp479
g19
g155
sg21
I00
sg22
S'ATLAS_MU_MS_DOWN'
p480
sg24
I01
sg25
S'ATLAS_MU_MS_UP'
p481
sg27
I00
sba(iTools.Systematics.sys_classes
Sys
p482
(dp483
g19
g160
sg21
I01
sg22
S'ATLAS_MU_EFF_ID_DOWN'
p484
sg24
I01
sg25
S'ATLAS_MU_EFF_ID_UP'
p485
sg27
I00
sba(iTools.Systematics.sys_classes
Sys
p486
(dp487
g19
g165
sg21
I01
sg22
S'ATLAS_MU_EFF_ISO_DOWN'
p488
sg24
I01
sg25
S'ATLAS_MU_EFF_ISO_UP'
p489
sg27
I00
sba(iTools.Systematics.sys_classes
Sys
p490
(dp491
g19
g170
sg21
I01
sg22
S'ATLAS_MU_EFF_TRIG_DOWN'
p492
sg24
I01
sg25
S'ATLAS_MU_EFF_TRIG_UP'
p493
sg27
I00
sba(iTools.Systematics.sys_classes
Sys
p494
(dp495
g19
g175
sg21
I01
sg22
S'ATLAS_PU_RESCALE_2012_DOWN'
p496
sg24
I01
sg25
S'ATLAS_PU_RESCALE_2012_UP'
p497
sg27
I00
sba(iTools.Systematics.sys_classes
Sys
p498
(dp499
g19
g180
sg21
I01
sg22
S'ATLAS_TAU_EFAKE_2012_DOWN'
p500
sg24
I01
sg25
S'ATLAS_TAU_EFAKE_2012_UP'
p501
sg27
I00
sba(iTools.Systematics.sys_classes
Sys
p502
(dp503
g19
g185
sg21
I01
sg22
S'ATLAS_TAU_ID_2012_DOWN'
p504
sg24
I01
sg25
S'ATLAS_TAU_ID_2012_UP'
p505
sg27
I00
sba(iTools.Systematics.sys_classes
Sys
p506
(dp507
g19
g190
sg21
I01
sg22
S'ATLAS_TAU_ID_STAT_2012_DOWN'
p508
sg24
I01
sg25
S'ATLAS_TAU_ID_STAT_2012_UP'
p509
sg27
I00
sba(iTools.Systematics.sys_classes
Sys
p510
(dp511
g19
g195
sg21
I00
sg22
S'ATLAS_TES_TRUE_2012_DOWN'
p512
sg24
I01
sg25
S'ATLAS_TES_TRUE_2012_UP'
p513
sg27
I00
sbasg198
(lp514
(iTools.Systematics.sys_classes
Sys
p515
(dp516
g19
g202
sg21
I00
sg22
F0.93500000000000005
sg24
I01
sg25
F1.0660000000000001
sg27
I00
sba(iTools.Systematics.sys_classes
Sys
p517
(dp518
g19
g205
sg21
I00
sg22
F0.97199999999999998
sg24
I01
sg25
F1.028
sg27
I00
sba(iTools.Systematics.sys_classes
Sys
p519
(dp520
g19
g208
sg21
I00
sg22
F0.98999999999999999
sg24
I01
sg25
F1.01
sg27
I00
sba(iTools.Systematics.sys_classes
Sys
p521
(dp522
g19
g211
sg21
I00
sg22
F0.98999999999999999
sg24
I01
sg25
F1.01
sg27
I00
sba(iTools.Systematics.sys_classes
Sys
p523
(dp524
g19
g214
sg21
I00
sg22
F0.97599999999999998
sg24
I01
sg25
F1.024
sg27
I00
sbasg19
S'WH110'
p525
sba(iTools.Systematics.sys_classes
Sample
p526
(dp527
g15
(lp528
(iTools.Systematics.sys_classes
Sys
p529
(dp530
g19
g20
sg21
I01
sg22
S'ATLAS_BTag_BEFF_DOWN'
p531
sg24
I01
sg25
S'ATLAS_BTag_BEFF_UP'
p532
sg27
I00
sba(iTools.Systematics.sys_classes
Sys
p533
(dp534
g19
g30
sg21
I01
sg22
S'ATLAS_BTag_CEFF_DOWN'
p535
sg24
I01
sg25
S'ATLAS_BTag_CEFF_UP'
p536
sg27
I00
sba(iTools.Systematics.sys_classes
Sys
p537
(dp538
g19
g35
sg21
I01
sg22
S'ATLAS_BTag_LEFF_DOWN'
p539
sg24
I01
sg25
S'ATLAS_BTag_LEFF_UP'
p540
sg27
I00
sba(iTools.Systematics.sys_classes
Sys
p541
(dp542
g19
g40
sg21
I00
sg22
S'ATLAS_EL_SCALE_ZEE_DOWN'
p543
sg24
I01
sg25
S'ATLAS_EL_SCALE_ZEE_UP'
p544
sg27
I00
sba(iTools.Systematics.sys_classes
Sys
p545
(dp546
g19
g45
sg21
I00
sg22
S'ATLAS_EL_SCALE_R12_DOWN'
p547
sg24
I01
sg25
S'ATLAS_EL_SCALE_R12_UP'
p548
sg27
I00
sba(iTools.Systematics.sys_classes
Sys
p549
(dp550
g19
g50
sg21
I00
sg22
S'ATLAS_EL_SCALE_PS_DOWN'
p551
sg24
I01
sg25
S'ATLAS_EL_SCALE_PS_UP'
p552
sg27
I00
sba(iTools.Systematics.sys_classes
Sys
p553
(dp554
g19
g55
sg21
I00
sg22
S'ATLAS_EL_SCALE_LOWPT_DOWN'
p555
sg24
I01
sg25
S'ATLAS_EL_SCALE_LOWPT_UP'
p556
sg27
I00
sba(iTools.Systematics.sys_classes
Sys
p557
(dp558
g19
g60
sg21
I01
sg22
S'ATLAS_EL_RES_DOWN'
p559
sg24
I01
sg25
S'ATLAS_EL_RES_UP'
p560
sg27
I00
sba(iTools.Systematics.sys_classes
Sys
p561
(dp562
g19
g65
sg21
I01
sg22
S'ATLAS_EL_EFF_ID_DOWN'
p563
sg24
I01
sg25
S'ATLAS_EL_EFF_ID_UP'
p564
sg27
I00
sba(iTools.Systematics.sys_classes
Sys
p565
(dp566
g19
g70
sg21
I01
sg22
S'ATLAS_EL_EFF_ISO_DOWN'
p567
sg24
I01
sg25
S'ATLAS_EL_EFF_ISO_UP'
p568
sg27
I00
sba(iTools.Systematics.sys_classes
Sys
p569
(dp570
g19
g75
sg21
I01
sg22
S'ATLAS_EL_EFF_TRIG_DOWN'
p571
sg24
I01
sg25
S'ATLAS_EL_EFF_TRIG_UP'
p572
sg27
I00
sba(iTools.Systematics.sys_classes
Sys
p573
(dp574
g19
g80
sg21
I00
sg22
S'ATLAS_JER_2012_DOWN'
p575
sg24
I01
sg25
S'ATLAS_JER_2012_UP'
p576
sg27
I00
sba(iTools.Systematics.sys_classes
Sys
p577
(dp578
g19
g85
sg21
I00
sg22
S'ATLAS_JES_2012_Statistical1_DOWN'
p579
sg24
I01
sg25
S'ATLAS_JES_2012_Statistical1_UP'
p580
sg27
I00
sba(iTools.Systematics.sys_classes
Sys
p581
(dp582
g19
g90
sg21
I00
sg22
S'ATLAS_JES_2012_Modelling1_DOWN'
p583
sg24
I01
sg25
S'ATLAS_JES_2012_Modelling1_UP'
p584
sg27
I00
sba(iTools.Systematics.sys_classes
Sys
p585
(dp586
g19
g95
sg21
I00
sg22
S'ATLAS_JES_2012_Detector1_DOWN'
p587
sg24
I01
sg25
S'ATLAS_JES_2012_Detector1_UP'
p588
sg27
I00
sba(iTools.Systematics.sys_classes
Sys
p589
(dp590
g19
g100
sg21
I00
sg22
S'ATLAS_JES_2012_EtaModelling_DOWN'
p591
sg24
I01
sg25
S'ATLAS_JES_2012_EtaModelling_UP'
p592
sg27
I00
sba(iTools.Systematics.sys_classes
Sys
p593
(dp594
g19
g105
sg21
I00
sg22
S'ATLAS_JES_2012_Eta_StatMethod_DOWN'
p595
sg24
I01
sg25
S'ATLAS_JES_2012_Eta_StatMethod_UP'
p596
sg27
I00
sba(iTools.Systematics.sys_classes
Sys
p597
(dp598
g19
g110
sg21
I00
sg22
S'ATLAS_JES_2012_PileRho_TAU_DOWN'
p599
sg24
I01
sg25
S'ATLAS_JES_2012_PileRho_TAU_UP'
p600
sg27
I00
sba(iTools.Systematics.sys_classes
Sys
p601
(dp602
g19
g115
sg21
I00
sg22
S'ATLAS_JES_NPV_DOWN'
p603
sg24
I01
sg25
S'ATLAS_JES_NPV_UP'
p604
sg27
I00
sba(iTools.Systematics.sys_classes
Sys
p605
(dp606
g19
g120
sg21
I00
sg22
S'ATLAS_JES_Mu_DOWN'
p607
sg24
I01
sg25
S'ATLAS_JES_Mu_UP'
p608
sg27
I00
sba(iTools.Systematics.sys_classes
Sys
p609
(dp610
g19
g125
sg21
I00
sg22
S'ATLAS_JES_FlavComp_TAU_DOWN'
p611
sg24
I01
sg25
S'ATLAS_JES_FlavComp_TAU_UP'
p612
sg27
I00
sba(iTools.Systematics.sys_classes
Sys
p613
(dp614
g19
g130
sg21
I00
sg22
S'ATLAS_JES_FlavResp_DOWN'
p615
sg24
I01
sg25
S'ATLAS_JES_FlavResp_UP'
p616
sg27
I00
sba(iTools.Systematics.sys_classes
Sys
p617
(dp618
g19
g135
sg21
I00
sg22
S'ATLAS_JES_Flavb_DOWN'
p619
sg24
I01
sg25
S'ATLAS_JES_Flavb_UP'
p620
sg27
I00
sba(iTools.Systematics.sys_classes
Sys
p621
(dp622
g19
g140
sg21
I00
sg22
S'ATLAS_JVF_2012_DOWN'
p623
sg24
I01
sg25
S'ATLAS_JVF_2012_UP'
p624
sg27
I00
sba(iTools.Systematics.sys_classes
Sys
p625
(dp626
g19
g145
sg21
I00
sg22
S'ATLAS_MET_RESOSOFT_DOWN'
p627
sg24
I01
sg25
S'ATLAS_MET_RESOSOFT_UP'
p628
sg27
I00
sba(iTools.Systematics.sys_classes
Sys
p629
(dp630
g19
g150
sg21
I00
sg22
S'ATLAS_MET_SCALESOFT_DOWN'
p631
sg24
I01
sg25
S'ATLAS_MET_SCALESOFT_UP'
p632
sg27
I00
sba(iTools.Systematics.sys_classes
Sys
p633
(dp634
g19
g155
sg21
I00
sg22
S'ATLAS_MU_MS_DOWN'
p635
sg24
I01
sg25
S'ATLAS_MU_MS_UP'
p636
sg27
I00
sba(iTools.Systematics.sys_classes
Sys
p637
(dp638
g19
g160
sg21
I01
sg22
S'ATLAS_MU_EFF_ID_DOWN'
p639
sg24
I01
sg25
S'ATLAS_MU_EFF_ID_UP'
p640
sg27
I00
sba(iTools.Systematics.sys_classes
Sys
p641
(dp642
g19
g165
sg21
I01
sg22
S'ATLAS_MU_EFF_ISO_DOWN'
p643
sg24
I01
sg25
S'ATLAS_MU_EFF_ISO_UP'
p644
sg27
I00
sba(iTools.Systematics.sys_classes
Sys
p645
(dp646
g19
g170
sg21
I01
sg22
S'ATLAS_MU_EFF_TRIG_DOWN'
p647
sg24
I01
sg25
S'ATLAS_MU_EFF_TRIG_UP'
p648
sg27
I00
sba(iTools.Systematics.sys_classes
Sys
p649
(dp650
g19
g175
sg21
I01
sg22
S'ATLAS_PU_RESCALE_2012_DOWN'
p651
sg24
I01
sg25
S'ATLAS_PU_RESCALE_2012_UP'
p652
sg27
I00
sba(iTools.Systematics.sys_classes
Sys
p653
(dp654
g19
g180
sg21
I01
sg22
S'ATLAS_TAU_EFAKE_2012_DOWN'
p655
sg24
I01
sg25
S'ATLAS_TAU_EFAKE_2012_UP'
p656
sg27
I00
sba(iTools.Systematics.sys_classes
Sys
p657
(dp658
g19
g185
sg21
I01
sg22
S'ATLAS_TAU_ID_2012_DOWN'
p659
sg24
I01
sg25
S'ATLAS_TAU_ID_2012_UP'
p660
sg27
I00
sba(iTools.Systematics.sys_classes
Sys
p661
(dp662
g19
g190
sg21
I01
sg22
S'ATLAS_TAU_ID_STAT_2012_DOWN'
p663
sg24
I01
sg25
S'ATLAS_TAU_ID_STAT_2012_UP'
p664
sg27
I00
sba(iTools.Systematics.sys_classes
Sys
p665
(dp666
g19
g195
sg21
I00
sg22
S'ATLAS_TES_TRUE_2012_DOWN'
p667
sg24
I01
sg25
S'ATLAS_TES_TRUE_2012_UP'
p668
sg27
I00
sbasg198
(lp669
(iTools.Systematics.sys_classes
Sys
p670
(dp671
g19
g202
sg21
I00
sg22
F0.93700000000000006
sg24
I01
sg25
F1.0640000000000001
sg27
I00
sba(iTools.Systematics.sys_classes
Sys
p672
(dp673
g19
g205
sg21
I00
sg22
F0.97199999999999998
sg24
I01
sg25
F1.028
sg27
I00
sba(iTools.Systematics.sys_classes
Sys
p674
(dp675
g19
g208
sg21
I00
sg22
F0.98999999999999999
sg24
I01
sg25
F1.01
sg27
I00
sba(iTools.Systematics.sys_classes
Sys
p676
(dp677
g19
g211
sg21
I00
sg22
F0.98999999999999999
sg24
I01
sg25
F1.01
sg27
I00
sba(iTools.Systematics.sys_classes
Sys
p678
(dp679
g19
g214
sg21
I00
sg22
F0.97699999999999998
sg24
I01
sg25
F1.0229999999999999
sg27
I00
sbasg19
S'WH115'
p680
sba(iTools.Systematics.sys_classes
Sample
p681
(dp682
g15
(lp683
(iTools.Systematics.sys_classes
Sys
p684
(dp685
g19
g20
sg21
I01
sg22
S'ATLAS_BTag_BEFF_DOWN'
p686
sg24
I01
sg25
S'ATLAS_BTag_BEFF_UP'
p687
sg27
I00
sba(iTools.Systematics.sys_classes
Sys
p688
(dp689
g19
g30
sg21
I01
sg22
S'ATLAS_BTag_CEFF_DOWN'
p690
sg24
I01
sg25
S'ATLAS_BTag_CEFF_UP'
p691
sg27
I00
sba(iTools.Systematics.sys_classes
Sys
p692
(dp693
g19
g35
sg21
I01
sg22
S'ATLAS_BTag_LEFF_DOWN'
p694
sg24
I01
sg25
S'ATLAS_BTag_LEFF_UP'
p695
sg27
I00
sba(iTools.Systematics.sys_classes
Sys
p696
(dp697
g19
g40
sg21
I00
sg22
S'ATLAS_EL_SCALE_ZEE_DOWN'
p698
sg24
I01
sg25
S'ATLAS_EL_SCALE_ZEE_UP'
p699
sg27
I00
sba(iTools.Systematics.sys_classes
Sys
p700
(dp701
g19
g45
sg21
I00
sg22
S'ATLAS_EL_SCALE_R12_DOWN'
p702
sg24
I01
sg25
S'ATLAS_EL_SCALE_R12_UP'
p703
sg27
I00
sba(iTools.Systematics.sys_classes
Sys
p704
(dp705
g19
g50
sg21
I00
sg22
S'ATLAS_EL_SCALE_PS_DOWN'
p706
sg24
I01
sg25
S'ATLAS_EL_SCALE_PS_UP'
p707
sg27
I00
sba(iTools.Systematics.sys_classes
Sys
p708
(dp709
g19
g55
sg21
I00
sg22
S'ATLAS_EL_SCALE_LOWPT_DOWN'
p710
sg24
I01
sg25
S'ATLAS_EL_SCALE_LOWPT_UP'
p711
sg27
I00
sba(iTools.Systematics.sys_classes
Sys
p712
(dp713
g19
g60
sg21
I01
sg22
S'ATLAS_EL_RES_DOWN'
p714
sg24
I01
sg25
S'ATLAS_EL_RES_UP'
p715
sg27
I00
sba(iTools.Systematics.sys_classes
Sys
p716
(dp717
g19
g65
sg21
I01
sg22
S'ATLAS_EL_EFF_ID_DOWN'
p718
sg24
I01
sg25
S'ATLAS_EL_EFF_ID_UP'
p719
sg27
I00
sba(iTools.Systematics.sys_classes
Sys
p720
(dp721
g19
g70
sg21
I01
sg22
S'ATLAS_EL_EFF_ISO_DOWN'
p722
sg24
I01
sg25
S'ATLAS_EL_EFF_ISO_UP'
p723
sg27
I00
sba(iTools.Systematics.sys_classes
Sys
p724
(dp725
g19
g75
sg21
I01
sg22
S'ATLAS_EL_EFF_TRIG_DOWN'
p726
sg24
I01
sg25
S'ATLAS_EL_EFF_TRIG_UP'
p727
sg27
I00
sba(iTools.Systematics.sys_classes
Sys
p728
(dp729
g19
g80
sg21
I00
sg22
S'ATLAS_JER_2012_DOWN'
p730
sg24
I01
sg25
S'ATLAS_JER_2012_UP'
p731
sg27
I00
sba(iTools.Systematics.sys_classes
Sys
p732
(dp733
g19
g85
sg21
I00
sg22
S'ATLAS_JES_2012_Statistical1_DOWN'
p734
sg24
I01
sg25
S'ATLAS_JES_2012_Statistical1_UP'
p735
sg27
I00
sba(iTools.Systematics.sys_classes
Sys
p736
(dp737
g19
g90
sg21
I00
sg22
S'ATLAS_JES_2012_Modelling1_DOWN'
p738
sg24
I01
sg25
S'ATLAS_JES_2012_Modelling1_UP'
p739
sg27
I00
sba(iTools.Systematics.sys_classes
Sys
p740
(dp741
g19
g95
sg21
I00
sg22
S'ATLAS_JES_2012_Detector1_DOWN'
p742
sg24
I01
sg25
S'ATLAS_JES_2012_Detector1_UP'
p743
sg27
I00
sba(iTools.Systematics.sys_classes
Sys
p744
(dp745
g19
g100
sg21
I00
sg22
S'ATLAS_JES_2012_EtaModelling_DOWN'
p746
sg24
I01
sg25
S'ATLAS_JES_2012_EtaModelling_UP'
p747
sg27
I00
sba(iTools.Systematics.sys_classes
Sys
p748
(dp749
g19
g105
sg21
I00
sg22
S'ATLAS_JES_2012_Eta_StatMethod_DOWN'
p750
sg24
I01
sg25
S'ATLAS_JES_2012_Eta_StatMethod_UP'
p751
sg27
I00
sba(iTools.Systematics.sys_classes
Sys
p752
(dp753
g19
g110
sg21
I00
sg22
S'ATLAS_JES_2012_PileRho_TAU_DOWN'
p754
sg24
I01
sg25
S'ATLAS_JES_2012_PileRho_TAU_UP'
p755
sg27
I00
sba(iTools.Systematics.sys_classes
Sys
p756
(dp757
g19
g115
sg21
I00
sg22
S'ATLAS_JES_NPV_DOWN'
p758
sg24
I01
sg25
S'ATLAS_JES_NPV_UP'
p759
sg27
I00
sba(iTools.Systematics.sys_classes
Sys
p760
(dp761
g19
g120
sg21
I00
sg22
S'ATLAS_JES_Mu_DOWN'
p762
sg24
I01
sg25
S'ATLAS_JES_Mu_UP'
p763
sg27
I00
sba(iTools.Systematics.sys_classes
Sys
p764
(dp765
g19
g125
sg21
I00
sg22
S'ATLAS_JES_FlavComp_TAU_DOWN'
p766
sg24
I01
sg25
S'ATLAS_JES_FlavComp_TAU_UP'
p767
sg27
I00
sba(iTools.Systematics.sys_classes
Sys
p768
(dp769
g19
g130
sg21
I00
sg22
S'ATLAS_JES_FlavResp_DOWN'
p770
sg24
I01
sg25
S'ATLAS_JES_FlavResp_UP'
p771
sg27
I00
sba(iTools.Systematics.sys_classes
Sys
p772
(dp773
g19
g135
sg21
I00
sg22
S'ATLAS_JES_Flavb_DOWN'
p774
sg24
I01
sg25
S'ATLAS_JES_Flavb_UP'
p775
sg27
I00
sba(iTools.Systematics.sys_classes
Sys
p776
(dp777
g19
g140
sg21
I00
sg22
S'ATLAS_JVF_2012_DOWN'
p778
sg24
I01
sg25
S'ATLAS_JVF_2012_UP'
p779
sg27
I00
sba(iTools.Systematics.sys_classes
Sys
p780
(dp781
g19
g145
sg21
I00
sg22
S'ATLAS_MET_RESOSOFT_DOWN'
p782
sg24
I01
sg25
S'ATLAS_MET_RESOSOFT_UP'
p783
sg27
I00
sba(iTools.Systematics.sys_classes
Sys
p784
(dp785
g19
g150
sg21
I00
sg22
S'ATLAS_MET_SCALESOFT_DOWN'
p786
sg24
I01
sg25
S'ATLAS_MET_SCALESOFT_UP'
p787
sg27
I00
sba(iTools.Systematics.sys_classes
Sys
p788
(dp789
g19
g155
sg21
I00
sg22
S'ATLAS_MU_MS_DOWN'
p790
sg24
I01
sg25
S'ATLAS_MU_MS_UP'
p791
sg27
I00
sba(iTools.Systematics.sys_classes
Sys
p792
(dp793
g19
g160
sg21
I01
sg22
S'ATLAS_MU_EFF_ID_DOWN'
p794
sg24
I01
sg25
S'ATLAS_MU_EFF_ID_UP'
p795
sg27
I00
sba(iTools.Systematics.sys_classes
Sys
p796
(dp797
g19
g165
sg21
I01
sg22
S'ATLAS_MU_EFF_ISO_DOWN'
p798
sg24
I01
sg25
S'ATLAS_MU_EFF_ISO_UP'
p799
sg27
I00
sba(iTools.Systematics.sys_classes
Sys
p800
(dp801
g19
g170
sg21
I01
sg22
S'ATLAS_MU_EFF_TRIG_DOWN'
p802
sg24
I01
sg25
S'ATLAS_MU_EFF_TRIG_UP'
p803
sg27
I00
sba(iTools.Systematics.sys_classes
Sys
p804
(dp805
g19
g175
sg21
I01
sg22
S'ATLAS_PU_RESCALE_2012_DOWN'
p806
sg24
I01
sg25
S'ATLAS_PU_RESCALE_2012_UP'
p807
sg27
I00
sba(iTools.Systematics.sys_classes
Sys
p808
(dp809
g19
g180
sg21
I01
sg22
S'ATLAS_TAU_EFAKE_2012_DOWN'
p810
sg24
I01
sg25
S'ATLAS_TAU_EFAKE_2012_UP'
p811
sg27
I00
sba(iTools.Systematics.sys_classes
Sys
p812
(dp813
g19
g185
sg21
I01
sg22
S'ATLAS_TAU_ID_2012_DOWN'
p814
sg24
I01
sg25
S'ATLAS_TAU_ID_2012_UP'
p815
sg27
I00
sba(iTools.Systematics.sys_classes
Sys
p816
(dp817
g19
g190
sg21
I01
sg22
S'ATLAS_TAU_ID_STAT_2012_DOWN'
p818
sg24
I01
sg25
S'ATLAS_TAU_ID_STAT_2012_UP'
p819
sg27
I00
sba(iTools.Systematics.sys_classes
Sys
p820
(dp821
g19
g195
sg21
I00
sg22
S'ATLAS_TES_TRUE_2012_DOWN'
p822
sg24
I01
sg25
S'ATLAS_TES_TRUE_2012_UP'
p823
sg27
I00
sbasg198
(lp824
(iTools.Systematics.sys_classes
Sys
p825
(dp826
g19
g202
sg21
I00
sg22
F0.93999999999999995
sg24
I01
sg25
F1.0609999999999999
sg27
I00
sba(iTools.Systematics.sys_classes
Sys
p827
(dp828
g19
g205
sg21
I00
sg22
F0.97199999999999998
sg24
I01
sg25
F1.028
sg27
I00
sba(iTools.Systematics.sys_classes
Sys
p829
(dp830
g19
g208
sg21
I00
sg22
F0.98999999999999999
sg24
I01
sg25
F1.01
sg27
I00
sba(iTools.Systematics.sys_classes
Sys
p831
(dp832
g19
g211
sg21
I00
sg22
F0.98999999999999999
sg24
I01
sg25
F1.01
sg27
I00
sba(iTools.Systematics.sys_classes
Sys
p833
(dp834
g19
g214
sg21
I00
sg22
F0.97499999999999998
sg24
I01
sg25
F1.0249999999999999
sg27
I00
sbasg19
S'WH120'
p835
sba(iTools.Systematics.sys_classes
Sample
p836
(dp837
g15
(lp838
(iTools.Systematics.sys_classes
Sys
p839
(dp840
g19
g20
sg21
I01
sg22
S'ATLAS_BTag_BEFF_DOWN'
p841
sg24
I01
sg25
S'ATLAS_BTag_BEFF_UP'
p842
sg27
I00
sba(iTools.Systematics.sys_classes
Sys
p843
(dp844
g19
g30
sg21
I01
sg22
S'ATLAS_BTag_CEFF_DOWN'
p845
sg24
I01
sg25
S'ATLAS_BTag_CEFF_UP'
p846
sg27
I00
sba(iTools.Systematics.sys_classes
Sys
p847
(dp848
g19
g35
sg21
I01
sg22
S'ATLAS_BTag_LEFF_DOWN'
p849
sg24
I01
sg25
S'ATLAS_BTag_LEFF_UP'
p850
sg27
I00
sba(iTools.Systematics.sys_classes
Sys
p851
(dp852
g19
g40
sg21
I00
sg22
S'ATLAS_EL_SCALE_ZEE_DOWN'
p853
sg24
I01
sg25
S'ATLAS_EL_SCALE_ZEE_UP'
p854
sg27
I00
sba(iTools.Systematics.sys_classes
Sys
p855
(dp856
g19
g45
sg21
I00
sg22
S'ATLAS_EL_SCALE_R12_DOWN'
p857
sg24
I01
sg25
S'ATLAS_EL_SCALE_R12_UP'
p858
sg27
I00
sba(iTools.Systematics.sys_classes
Sys
p859
(dp860
g19
g50
sg21
I00
sg22
S'ATLAS_EL_SCALE_PS_DOWN'
p861
sg24
I01
sg25
S'ATLAS_EL_SCALE_PS_UP'
p862
sg27
I00
sba(iTools.Systematics.sys_classes
Sys
p863
(dp864
g19
g55
sg21
I00
sg22
S'ATLAS_EL_SCALE_LOWPT_DOWN'
p865
sg24
I01
sg25
S'ATLAS_EL_SCALE_LOWPT_UP'
p866
sg27
I00
sba(iTools.Systematics.sys_classes
Sys
p867
(dp868
g19
g60
sg21
I01
sg22
S'ATLAS_EL_RES_DOWN'
p869
sg24
I01
sg25
S'ATLAS_EL_RES_UP'
p870
sg27
I00
sba(iTools.Systematics.sys_classes
Sys
p871
(dp872
g19
g65
sg21
I01
sg22
S'ATLAS_EL_EFF_ID_DOWN'
p873
sg24
I01
sg25
S'ATLAS_EL_EFF_ID_UP'
p874
sg27
I00
sba(iTools.Systematics.sys_classes
Sys
p875
(dp876
g19
g70
sg21
I01
sg22
S'ATLAS_EL_EFF_ISO_DOWN'
p877
sg24
I01
sg25
S'ATLAS_EL_EFF_ISO_UP'
p878
sg27
I00
sba(iTools.Systematics.sys_classes
Sys
p879
(dp880
g19
g75
sg21
I01
sg22
S'ATLAS_EL_EFF_TRIG_DOWN'
p881
sg24
I01
sg25
S'ATLAS_EL_EFF_TRIG_UP'
p882
sg27
I00
sba(iTools.Systematics.sys_classes
Sys
p883
(dp884
g19
g80
sg21
I00
sg22
S'ATLAS_JER_2012_DOWN'
p885
sg24
I01
sg25
S'ATLAS_JER_2012_UP'
p886
sg27
I00
sba(iTools.Systematics.sys_classes
Sys
p887
(dp888
g19
g85
sg21
I00
sg22
S'ATLAS_JES_2012_Statistical1_DOWN'
p889
sg24
I01
sg25
S'ATLAS_JES_2012_Statistical1_UP'
p890
sg27
I00
sba(iTools.Systematics.sys_classes
Sys
p891
(dp892
g19
g90
sg21
I00
sg22
S'ATLAS_JES_2012_Modelling1_DOWN'
p893
sg24
I01
sg25
S'ATLAS_JES_2012_Modelling1_UP'
p894
sg27
I00
sba(iTools.Systematics.sys_classes
Sys
p895
(dp896
g19
g95
sg21
I00
sg22
S'ATLAS_JES_2012_Detector1_DOWN'
p897
sg24
I01
sg25
S'ATLAS_JES_2012_Detector1_UP'
p898
sg27
I00
sba(iTools.Systematics.sys_classes
Sys
p899
(dp900
g19
g100
sg21
I00
sg22
S'ATLAS_JES_2012_EtaModelling_DOWN'
p901
sg24
I01
sg25
S'ATLAS_JES_2012_EtaModelling_UP'
p902
sg27
I00
sba(iTools.Systematics.sys_classes
Sys
p903
(dp904
g19
g105
sg21
I00
sg22
S'ATLAS_JES_2012_Eta_StatMethod_DOWN'
p905
sg24
I01
sg25
S'ATLAS_JES_2012_Eta_StatMethod_UP'
p906
sg27
I00
sba(iTools.Systematics.sys_classes
Sys
p907
(dp908
g19
g110
sg21
I00
sg22
S'ATLAS_JES_2012_PileRho_TAU_DOWN'
p909
sg24
I01
sg25
S'ATLAS_JES_2012_PileRho_TAU_UP'
p910
sg27
I00
sba(iTools.Systematics.sys_classes
Sys
p911
(dp912
g19
g115
sg21
I00
sg22
S'ATLAS_JES_NPV_DOWN'
p913
sg24
I01
sg25
S'ATLAS_JES_NPV_UP'
p914
sg27
I00
sba(iTools.Systematics.sys_classes
Sys
p915
(dp916
g19
g120
sg21
I00
sg22
S'ATLAS_JES_Mu_DOWN'
p917
sg24
I01
sg25
S'ATLAS_JES_Mu_UP'
p918
sg27
I00
sba(iTools.Systematics.sys_classes
Sys
p919
(dp920
g19
g125
sg21
I00
sg22
S'ATLAS_JES_FlavComp_TAU_DOWN'
p921
sg24
I01
sg25
S'ATLAS_JES_FlavComp_TAU_UP'
p922
sg27
I00
sba(iTools.Systematics.sys_classes
Sys
p923
(dp924
g19
g130
sg21
I00
sg22
S'ATLAS_JES_FlavResp_DOWN'
p925
sg24
I01
sg25
S'ATLAS_JES_FlavResp_UP'
p926
sg27
I00
sba(iTools.Systematics.sys_classes
Sys
p927
(dp928
g19
g135
sg21
I00
sg22
S'ATLAS_JES_Flavb_DOWN'
p929
sg24
I01
sg25
S'ATLAS_JES_Flavb_UP'
p930
sg27
I00
sba(iTools.Systematics.sys_classes
Sys
p931
(dp932
g19
g140
sg21
I00
sg22
S'ATLAS_JVF_2012_DOWN'
p933
sg24
I01
sg25
S'ATLAS_JVF_2012_UP'
p934
sg27
I00
sba(iTools.Systematics.sys_classes
Sys
p935
(dp936
g19
g145
sg21
I00
sg22
S'ATLAS_MET_RESOSOFT_DOWN'
p937
sg24
I01
sg25
S'ATLAS_MET_RESOSOFT_UP'
p938
sg27
I00
sba(iTools.Systematics.sys_classes
Sys
p939
(dp940
g19
g150
sg21
I00
sg22
S'ATLAS_MET_SCALESOFT_DOWN'
p941
sg24
I01
sg25
S'ATLAS_MET_SCALESOFT_UP'
p942
sg27
I00
sba(iTools.Systematics.sys_classes
Sys
p943
(dp944
g19
g155
sg21
I00
sg22
S'ATLAS_MU_MS_DOWN'
p945
sg24
I01
sg25
S'ATLAS_MU_MS_UP'
p946
sg27
I00
sba(iTools.Systematics.sys_classes
Sys
p947
(dp948
g19
g160
sg21
I01
sg22
S'ATLAS_MU_EFF_ID_DOWN'
p949
sg24
I01
sg25
S'ATLAS_MU_EFF_ID_UP'
p950
sg27
I00
sba(iTools.Systematics.sys_classes
Sys
p951
(dp952
g19
g165
sg21
I01
sg22
S'ATLAS_MU_EFF_ISO_DOWN'
p953
sg24
I01
sg25
S'ATLAS_MU_EFF_ISO_UP'
p954
sg27
I00
sba(iTools.Systematics.sys_classes
Sys
p955
(dp956
g19
g170
sg21
I01
sg22
S'ATLAS_MU_EFF_TRIG_DOWN'
p957
sg24
I01
sg25
S'ATLAS_MU_EFF_TRIG_UP'
p958
sg27
I00
sba(iTools.Systematics.sys_classes
Sys
p959
(dp960
g19
g175
sg21
I01
sg22
S'ATLAS_PU_RESCALE_2012_DOWN'
p961
sg24
I01
sg25
S'ATLAS_PU_RESCALE_2012_UP'
p962
sg27
I00
sba(iTools.Systematics.sys_classes
Sys
p963
(dp964
g19
g180
sg21
I01
sg22
S'ATLAS_TAU_EFAKE_2012_DOWN'
p965
sg24
I01
sg25
S'ATLAS_TAU_EFAKE_2012_UP'
p966
sg27
I00
sba(iTools.Systematics.sys_classes
Sys
p967
(dp968
g19
g185
sg21
I01
sg22
S'ATLAS_TAU_ID_2012_DOWN'
p969
sg24
I01
sg25
S'ATLAS_TAU_ID_2012_UP'
p970
sg27
I00
sba(iTools.Systematics.sys_classes
Sys
p971
(dp972
g19
g190
sg21
I01
sg22
S'ATLAS_TAU_ID_STAT_2012_DOWN'
p973
sg24
I01
sg25
S'ATLAS_TAU_ID_STAT_2012_UP'
p974
sg27
I00
sba(iTools.Systematics.sys_classes
Sys
p975
(dp976
g19
g195
sg21
I00
sg22
S'ATLAS_TES_TRUE_2012_DOWN'
p977
sg24
I01
sg25
S'ATLAS_TES_TRUE_2012_UP'
p978
sg27
I00
sbasg198
(lp979
(iTools.Systematics.sys_classes
Sys
p980
(dp981
g19
g202
sg21
I00
sg22
F0.94299999999999995
sg24
I01
sg25
F1.0569999999999999
sg27
I00
sba(iTools.Systematics.sys_classes
Sys
p982
(dp983
g19
g205
sg21
I00
sg22
F0.97199999999999998
sg24
I01
sg25
F1.028
sg27
I00
sba(iTools.Systematics.sys_classes
Sys
p984
(dp985
g19
g208
sg21
I00
sg22
F0.98999999999999999
sg24
I01
sg25
F1.01
sg27
I00
sba(iTools.Systematics.sys_classes
Sys
p986
(dp987
g19
g211
sg21
I00
sg22
F0.98999999999999999
sg24
I01
sg25
F1.01
sg27
I00
sba(iTools.Systematics.sys_classes
Sys
p988
(dp989
g19
g214
sg21
I00
sg22
F0.97699999999999998
sg24
I01
sg25
F1.0229999999999999
sg27
I00
sbasg19
S'WH125'
p990
sba(iTools.Systematics.sys_classes
Sample
p991
(dp992
g15
(lp993
(iTools.Systematics.sys_classes
Sys
p994
(dp995
g19
g20
sg21
I01
sg22
S'ATLAS_BTag_BEFF_DOWN'
p996
sg24
I01
sg25
S'ATLAS_BTag_BEFF_UP'
p997
sg27
I00
sba(iTools.Systematics.sys_classes
Sys
p998
(dp999
g19
g30
sg21
I01
sg22
S'ATLAS_BTag_CEFF_DOWN'
p1000
sg24
I01
sg25
S'ATLAS_BTag_CEFF_UP'
p1001
sg27
I00
sba(iTools.Systematics.sys_classes
Sys
p1002
(dp1003
g19
g35
sg21
I01
sg22
S'ATLAS_BTag_LEFF_DOWN'
p1004
sg24
I01
sg25
S'ATLAS_BTag_LEFF_UP'
p1005
sg27
I00
sba(iTools.Systematics.sys_classes
Sys
p1006
(dp1007
g19
g40
sg21
I00
sg22
S'ATLAS_EL_SCALE_ZEE_DOWN'
p1008
sg24
I01
sg25
S'ATLAS_EL_SCALE_ZEE_UP'
p1009
sg27
I00
sba(iTools.Systematics.sys_classes
Sys
p1010
(dp1011
g19
g45
sg21
I00
sg22
S'ATLAS_EL_SCALE_R12_DOWN'
p1012
sg24
I01
sg25
S'ATLAS_EL_SCALE_R12_UP'
p1013
sg27
I00
sba(iTools.Systematics.sys_classes
Sys
p1014
(dp1015
g19
g50
sg21
I00
sg22
S'ATLAS_EL_SCALE_PS_DOWN'
p1016
sg24
I01
sg25
S'ATLAS_EL_SCALE_PS_UP'
p1017
sg27
I00
sba(iTools.Systematics.sys_classes
Sys
p1018
(dp1019
g19
g55
sg21
I00
sg22
S'ATLAS_EL_SCALE_LOWPT_DOWN'
p1020
sg24
I01
sg25
S'ATLAS_EL_SCALE_LOWPT_UP'
p1021
sg27
I00
sba(iTools.Systematics.sys_classes
Sys
p1022
(dp1023
g19
g60
sg21
I01
sg22
S'ATLAS_EL_RES_DOWN'
p1024
sg24
I01
sg25
S'ATLAS_EL_RES_UP'
p1025
sg27
I00
sba(iTools.Systematics.sys_classes
Sys
p1026
(dp1027
g19
g65
sg21
I01
sg22
S'ATLAS_EL_EFF_ID_DOWN'
p1028
sg24
I01
sg25
S'ATLAS_EL_EFF_ID_UP'
p1029
sg27
I00
sba(iTools.Systematics.sys_classes
Sys
p1030
(dp1031
g19
g70
sg21
I01
sg22
S'ATLAS_EL_EFF_ISO_DOWN'
p1032
sg24
I01
sg25
S'ATLAS_EL_EFF_ISO_UP'
p1033
sg27
I00
sba(iTools.Systematics.sys_classes
Sys
p1034
(dp1035
g19
g75
sg21
I01
sg22
S'ATLAS_EL_EFF_TRIG_DOWN'
p1036
sg24
I01
sg25
S'ATLAS_EL_EFF_TRIG_UP'
p1037
sg27
I00
sba(iTools.Systematics.sys_classes
Sys
p1038
(dp1039
g19
g80
sg21
I00
sg22
S'ATLAS_JER_2012_DOWN'
p1040
sg24
I01
sg25
S'ATLAS_JER_2012_UP'
p1041
sg27
I00
sba(iTools.Systematics.sys_classes
Sys
p1042
(dp1043
g19
g85
sg21
I00
sg22
S'ATLAS_JES_2012_Statistical1_DOWN'
p1044
sg24
I01
sg25
S'ATLAS_JES_2012_Statistical1_UP'
p1045
sg27
I00
sba(iTools.Systematics.sys_classes
Sys
p1046
(dp1047
g19
g90
sg21
I00
sg22
S'ATLAS_JES_2012_Modelling1_DOWN'
p1048
sg24
I01
sg25
S'ATLAS_JES_2012_Modelling1_UP'
p1049
sg27
I00
sba(iTools.Systematics.sys_classes
Sys
p1050
(dp1051
g19
g95
sg21
I00
sg22
S'ATLAS_JES_2012_Detector1_DOWN'
p1052
sg24
I01
sg25
S'ATLAS_JES_2012_Detector1_UP'
p1053
sg27
I00
sba(iTools.Systematics.sys_classes
Sys
p1054
(dp1055
g19
g100
sg21
I00
sg22
S'ATLAS_JES_2012_EtaModelling_DOWN'
p1056
sg24
I01
sg25
S'ATLAS_JES_2012_EtaModelling_UP'
p1057
sg27
I00
sba(iTools.Systematics.sys_classes
Sys
p1058
(dp1059
g19
g105
sg21
I00
sg22
S'ATLAS_JES_2012_Eta_StatMethod_DOWN'
p1060
sg24
I01
sg25
S'ATLAS_JES_2012_Eta_StatMethod_UP'
p1061
sg27
I00
sba(iTools.Systematics.sys_classes
Sys
p1062
(dp1063
g19
g110
sg21
I00
sg22
S'ATLAS_JES_2012_PileRho_TAU_DOWN'
p1064
sg24
I01
sg25
S'ATLAS_JES_2012_PileRho_TAU_UP'
p1065
sg27
I00
sba(iTools.Systematics.sys_classes
Sys
p1066
(dp1067
g19
g115
sg21
I00
sg22
S'ATLAS_JES_NPV_DOWN'
p1068
sg24
I01
sg25
S'ATLAS_JES_NPV_UP'
p1069
sg27
I00
sba(iTools.Systematics.sys_classes
Sys
p1070
(dp1071
g19
g120
sg21
I00
sg22
S'ATLAS_JES_Mu_DOWN'
p1072
sg24
I01
sg25
S'ATLAS_JES_Mu_UP'
p1073
sg27
I00
sba(iTools.Systematics.sys_classes
Sys
p1074
(dp1075
g19
g125
sg21
I00
sg22
S'ATLAS_JES_FlavComp_TAU_DOWN'
p1076
sg24
I01
sg25
S'ATLAS_JES_FlavComp_TAU_UP'
p1077
sg27
I00
sba(iTools.Systematics.sys_classes
Sys
p1078
(dp1079
g19
g130
sg21
I00
sg22
S'ATLAS_JES_FlavResp_DOWN'
p1080
sg24
I01
sg25
S'ATLAS_JES_FlavResp_UP'
p1081
sg27
I00
sba(iTools.Systematics.sys_classes
Sys
p1082
(dp1083
g19
g135
sg21
I00
sg22
S'ATLAS_JES_Flavb_DOWN'
p1084
sg24
I01
sg25
S'ATLAS_JES_Flavb_UP'
p1085
sg27
I00
sba(iTools.Systematics.sys_classes
Sys
p1086
(dp1087
g19
g140
sg21
I00
sg22
S'ATLAS_JVF_2012_DOWN'
p1088
sg24
I01
sg25
S'ATLAS_JVF_2012_UP'
p1089
sg27
I00
sba(iTools.Systematics.sys_classes
Sys
p1090
(dp1091
g19
g145
sg21
I00
sg22
S'ATLAS_MET_RESOSOFT_DOWN'
p1092
sg24
I01
sg25
S'ATLAS_MET_RESOSOFT_UP'
p1093
sg27
I00
sba(iTools.Systematics.sys_classes
Sys
p1094
(dp1095
g19
g150
sg21
I00
sg22
S'ATLAS_MET_SCALESOFT_DOWN'
p1096
sg24
I01
sg25
S'ATLAS_MET_SCALESOFT_UP'
p1097
sg27
I00
sba(iTools.Systematics.sys_classes
Sys
p1098
(dp1099
g19
g155
sg21
I00
sg22
S'ATLAS_MU_MS_DOWN'
p1100
sg24
I01
sg25
S'ATLAS_MU_MS_UP'
p1101
sg27
I00
sba(iTools.Systematics.sys_classes
Sys
p1102
(dp1103
g19
g160
sg21
I01
sg22
S'ATLAS_MU_EFF_ID_DOWN'
p1104
sg24
I01
sg25
S'ATLAS_MU_EFF_ID_UP'
p1105
sg27
I00
sba(iTools.Systematics.sys_classes
Sys
p1106
(dp1107
g19
g165
sg21
I01
sg22
S'ATLAS_MU_EFF_ISO_DOWN'
p1108
sg24
I01
sg25
S'ATLAS_MU_EFF_ISO_UP'
p1109
sg27
I00
sba(iTools.Systematics.sys_classes
Sys
p1110
(dp1111
g19
g170
sg21
I01
sg22
S'ATLAS_MU_EFF_TRIG_DOWN'
p1112
sg24
I01
sg25
S'ATLAS_MU_EFF_TRIG_UP'
p1113
sg27
I00
sba(iTools.Systematics.sys_classes
Sys
p1114
(dp1115
g19
g175
sg21
I01
sg22
S'ATLAS_PU_RESCALE_2012_DOWN'
p1116
sg24
I01
sg25
S'ATLAS_PU_RESCALE_2012_UP'
p1117
sg27
I00
sba(iTools.Systematics.sys_classes
Sys
p1118
(dp1119
g19
g180
sg21
I01
sg22
S'ATLAS_TAU_EFAKE_2012_DOWN'
p1120
sg24
I01
sg25
S'ATLAS_TAU_EFAKE_2012_UP'
p1121
sg27
I00
sba(iTools.Systematics.sys_classes
Sys
p1122
(dp1123
g19
g185
sg21
I01
sg22
S'ATLAS_TAU_ID_2012_DOWN'
p1124
sg24
I01
sg25
S'ATLAS_TAU_ID_2012_UP'
p1125
sg27
I00
sba(iTools.Systematics.sys_classes
Sys
p1126
(dp1127
g19
g190
sg21
I01
sg22
S'ATLAS_TAU_ID_STAT_2012_DOWN'
p1128
sg24
I01
sg25
S'ATLAS_TAU_ID_STAT_2012_UP'
p1129
sg27
I00
sba(iTools.Systematics.sys_classes
Sys
p1130
(dp1131
g19
g195
sg21
I00
sg22
S'ATLAS_TES_TRUE_2012_DOWN'
p1132
sg24
I01
sg25
S'ATLAS_TES_TRUE_2012_UP'
p1133
sg27
I00
sbasg198
(lp1134
(iTools.Systematics.sys_classes
Sys
p1135
(dp1136
g19
g202
sg21
I00
sg22
F0.94799999999999995
sg24
I01
sg25
F1.0529999999999999
sg27
I00
sba(iTools.Systematics.sys_classes
Sys
p1137
(dp1138
g19
g205
sg21
I00
sg22
F0.97199999999999998
sg24
I01
sg25
F1.028
sg27
I00
sba(iTools.Systematics.sys_classes
Sys
p1139
(dp1140
g19
g208
sg21
I00
sg22
F0.98999999999999999
sg24
I01
sg25
F1.01
sg27
I00
sba(iTools.Systematics.sys_classes
Sys
p1141
(dp1142
g19
g211
sg21
I00
sg22
F0.98999999999999999
sg24
I01
sg25
F1.01
sg27
I00
sba(iTools.Systematics.sys_classes
Sys
p1143
(dp1144
g19
g214
sg21
I00
sg22
F0.97599999999999998
sg24
I01
sg25
F1.024
sg27
I00
sbasg19
S'WH130'
p1145
sba(iTools.Systematics.sys_classes
Sample
p1146
(dp1147
g15
(lp1148
(iTools.Systematics.sys_classes
Sys
p1149
(dp1150
g19
g20
sg21
I01
sg22
S'ATLAS_BTag_BEFF_DOWN'
p1151
sg24
I01
sg25
S'ATLAS_BTag_BEFF_UP'
p1152
sg27
I00
sba(iTools.Systematics.sys_classes
Sys
p1153
(dp1154
g19
g30
sg21
I01
sg22
S'ATLAS_BTag_CEFF_DOWN'
p1155
sg24
I01
sg25
S'ATLAS_BTag_CEFF_UP'
p1156
sg27
I00
sba(iTools.Systematics.sys_classes
Sys
p1157
(dp1158
g19
g35
sg21
I01
sg22
S'ATLAS_BTag_LEFF_DOWN'
p1159
sg24
I01
sg25
S'ATLAS_BTag_LEFF_UP'
p1160
sg27
I00
sba(iTools.Systematics.sys_classes
Sys
p1161
(dp1162
g19
g40
sg21
I00
sg22
S'ATLAS_EL_SCALE_ZEE_DOWN'
p1163
sg24
I01
sg25
S'ATLAS_EL_SCALE_ZEE_UP'
p1164
sg27
I00
sba(iTools.Systematics.sys_classes
Sys
p1165
(dp1166
g19
g45
sg21
I00
sg22
S'ATLAS_EL_SCALE_R12_DOWN'
p1167
sg24
I01
sg25
S'ATLAS_EL_SCALE_R12_UP'
p1168
sg27
I00
sba(iTools.Systematics.sys_classes
Sys
p1169
(dp1170
g19
g50
sg21
I00
sg22
S'ATLAS_EL_SCALE_PS_DOWN'
p1171
sg24
I01
sg25
S'ATLAS_EL_SCALE_PS_UP'
p1172
sg27
I00
sba(iTools.Systematics.sys_classes
Sys
p1173
(dp1174
g19
g55
sg21
I00
sg22
S'ATLAS_EL_SCALE_LOWPT_DOWN'
p1175
sg24
I01
sg25
S'ATLAS_EL_SCALE_LOWPT_UP'
p1176
sg27
I00
sba(iTools.Systematics.sys_classes
Sys
p1177
(dp1178
g19
g60
sg21
I01
sg22
S'ATLAS_EL_RES_DOWN'
p1179
sg24
I01
sg25
S'ATLAS_EL_RES_UP'
p1180
sg27
I00
sba(iTools.Systematics.sys_classes
Sys
p1181
(dp1182
g19
g65
sg21
I01
sg22
S'ATLAS_EL_EFF_ID_DOWN'
p1183
sg24
I01
sg25
S'ATLAS_EL_EFF_ID_UP'
p1184
sg27
I00
sba(iTools.Systematics.sys_classes
Sys
p1185
(dp1186
g19
g70
sg21
I01
sg22
S'ATLAS_EL_EFF_ISO_DOWN'
p1187
sg24
I01
sg25
S'ATLAS_EL_EFF_ISO_UP'
p1188
sg27
I00
sba(iTools.Systematics.sys_classes
Sys
p1189
(dp1190
g19
g75
sg21
I01
sg22
S'ATLAS_EL_EFF_TRIG_DOWN'
p1191
sg24
I01
sg25
S'ATLAS_EL_EFF_TRIG_UP'
p1192
sg27
I00
sba(iTools.Systematics.sys_classes
Sys
p1193
(dp1194
g19
g80
sg21
I00
sg22
S'ATLAS_JER_2012_DOWN'
p1195
sg24
I01
sg25
S'ATLAS_JER_2012_UP'
p1196
sg27
I00
sba(iTools.Systematics.sys_classes
Sys
p1197
(dp1198
g19
g85
sg21
I00
sg22
S'ATLAS_JES_2012_Statistical1_DOWN'
p1199
sg24
I01
sg25
S'ATLAS_JES_2012_Statistical1_UP'
p1200
sg27
I00
sba(iTools.Systematics.sys_classes
Sys
p1201
(dp1202
g19
g90
sg21
I00
sg22
S'ATLAS_JES_2012_Modelling1_DOWN'
p1203
sg24
I01
sg25
S'ATLAS_JES_2012_Modelling1_UP'
p1204
sg27
I00
sba(iTools.Systematics.sys_classes
Sys
p1205
(dp1206
g19
g95
sg21
I00
sg22
S'ATLAS_JES_2012_Detector1_DOWN'
p1207
sg24
I01
sg25
S'ATLAS_JES_2012_Detector1_UP'
p1208
sg27
I00
sba(iTools.Systematics.sys_classes
Sys
p1209
(dp1210
g19
g100
sg21
I00
sg22
S'ATLAS_JES_2012_EtaModelling_DOWN'
p1211
sg24
I01
sg25
S'ATLAS_JES_2012_EtaModelling_UP'
p1212
sg27
I00
sba(iTools.Systematics.sys_classes
Sys
p1213
(dp1214
g19
g105
sg21
I00
sg22
S'ATLAS_JES_2012_Eta_StatMethod_DOWN'
p1215
sg24
I01
sg25
S'ATLAS_JES_2012_Eta_StatMethod_UP'
p1216
sg27
I00
sba(iTools.Systematics.sys_classes
Sys
p1217
(dp1218
g19
g110
sg21
I00
sg22
S'ATLAS_JES_2012_PileRho_TAU_DOWN'
p1219
sg24
I01
sg25
S'ATLAS_JES_2012_PileRho_TAU_UP'
p1220
sg27
I00
sba(iTools.Systematics.sys_classes
Sys
p1221
(dp1222
g19
g115
sg21
I00
sg22
S'ATLAS_JES_NPV_DOWN'
p1223
sg24
I01
sg25
S'ATLAS_JES_NPV_UP'
p1224
sg27
I00
sba(iTools.Systematics.sys_classes
Sys
p1225
(dp1226
g19
g120
sg21
I00
sg22
S'ATLAS_JES_Mu_DOWN'
p1227
sg24
I01
sg25
S'ATLAS_JES_Mu_UP'
p1228
sg27
I00
sba(iTools.Systematics.sys_classes
Sys
p1229
(dp1230
g19
g125
sg21
I00
sg22
S'ATLAS_JES_FlavComp_TAU_DOWN'
p1231
sg24
I01
sg25
S'ATLAS_JES_FlavComp_TAU_UP'
p1232
sg27
I00
sba(iTools.Systematics.sys_classes
Sys
p1233
(dp1234
g19
g130
sg21
I00
sg22
S'ATLAS_JES_FlavResp_DOWN'
p1235
sg24
I01
sg25
S'ATLAS_JES_FlavResp_UP'
p1236
sg27
I00
sba(iTools.Systematics.sys_classes
Sys
p1237
(dp1238
g19
g135
sg21
I00
sg22
S'ATLAS_JES_Flavb_DOWN'
p1239
sg24
I01
sg25
S'ATLAS_JES_Flavb_UP'
p1240
sg27
I00
sba(iTools.Systematics.sys_classes
Sys
p1241
(dp1242
g19
g140
sg21
I00
sg22
S'ATLAS_JVF_2012_DOWN'
p1243
sg24
I01
sg25
S'ATLAS_JVF_2012_UP'
p1244
sg27
I00
sba(iTools.Systematics.sys_classes
Sys
p1245
(dp1246
g19
g145
sg21
I00
sg22
S'ATLAS_MET_RESOSOFT_DOWN'
p1247
sg24
I01
sg25
S'ATLAS_MET_RESOSOFT_UP'
p1248
sg27
I00
sba(iTools.Systematics.sys_classes
Sys
p1249
(dp1250
g19
g150
sg21
I00
sg22
S'ATLAS_MET_SCALESOFT_DOWN'
p1251
sg24
I01
sg25
S'ATLAS_MET_SCALESOFT_UP'
p1252
sg27
I00
sba(iTools.Systematics.sys_classes
Sys
p1253
(dp1254
g19
g155
sg21
I00
sg22
S'ATLAS_MU_MS_DOWN'
p1255
sg24
I01
sg25
S'ATLAS_MU_MS_UP'
p1256
sg27
I00
sba(iTools.Systematics.sys_classes
Sys
p1257
(dp1258
g19
g160
sg21
I01
sg22
S'ATLAS_MU_EFF_ID_DOWN'
p1259
sg24
I01
sg25
S'ATLAS_MU_EFF_ID_UP'
p1260
sg27
I00
sba(iTools.Systematics.sys_classes
Sys
p1261
(dp1262
g19
g165
sg21
I01
sg22
S'ATLAS_MU_EFF_ISO_DOWN'
p1263
sg24
I01
sg25
S'ATLAS_MU_EFF_ISO_UP'
p1264
sg27
I00
sba(iTools.Systematics.sys_classes
Sys
p1265
(dp1266
g19
g170
sg21
I01
sg22
S'ATLAS_MU_EFF_TRIG_DOWN'
p1267
sg24
I01
sg25
S'ATLAS_MU_EFF_TRIG_UP'
p1268
sg27
I00
sba(iTools.Systematics.sys_classes
Sys
p1269
(dp1270
g19
g175
sg21
I01
sg22
S'ATLAS_PU_RESCALE_2012_DOWN'
p1271
sg24
I01
sg25
S'ATLAS_PU_RESCALE_2012_UP'
p1272
sg27
I00
sba(iTools.Systematics.sys_classes
Sys
p1273
(dp1274
g19
g180
sg21
I01
sg22
S'ATLAS_TAU_EFAKE_2012_DOWN'
p1275
sg24
I01
sg25
S'ATLAS_TAU_EFAKE_2012_UP'
p1276
sg27
I00
sba(iTools.Systematics.sys_classes
Sys
p1277
(dp1278
g19
g185
sg21
I01
sg22
S'ATLAS_TAU_ID_2012_DOWN'
p1279
sg24
I01
sg25
S'ATLAS_TAU_ID_2012_UP'
p1280
sg27
I00
sba(iTools.Systematics.sys_classes
Sys
p1281
(dp1282
g19
g190
sg21
I01
sg22
S'ATLAS_TAU_ID_STAT_2012_DOWN'
p1283
sg24
I01
sg25
S'ATLAS_TAU_ID_STAT_2012_UP'
p1284
sg27
I00
sba(iTools.Systematics.sys_classes
Sys
p1285
(dp1286
g19
g195
sg21
I00
sg22
S'ATLAS_TES_TRUE_2012_DOWN'
p1287
sg24
I01
sg25
S'ATLAS_TES_TRUE_2012_UP'
p1288
sg27
I00
sbasg198
(lp1289
(iTools.Systematics.sys_classes
Sys
p1290
(dp1291
g19
g202
sg21
I00
sg22
F0.95199999999999996
sg24
I01
sg25
F1.048
sg27
I00
sba(iTools.Systematics.sys_classes
Sys
p1292
(dp1293
g19
g205
sg21
I00
sg22
F0.97199999999999998
sg24
I01
sg25
F1.028
sg27
I00
sba(iTools.Systematics.sys_classes
Sys
p1294
(dp1295
g19
g208
sg21
I00
sg22
F0.98999999999999999
sg24
I01
sg25
F1.01
sg27
I00
sba(iTools.Systematics.sys_classes
Sys
p1296
(dp1297
g19
g211
sg21
I00
sg22
F0.98999999999999999
sg24
I01
sg25
F1.01
sg27
I00
sba(iTools.Systematics.sys_classes
Sys
p1298
(dp1299
g19
g214
sg21
I00
sg22
F0.97499999999999998
sg24
I01
sg25
F1.0249999999999999
sg27
I00
sbasg19
S'WH135'
p1300
sba(iTools.Systematics.sys_classes
Sample
p1301
(dp1302
g15
(lp1303
(iTools.Systematics.sys_classes
Sys
p1304
(dp1305
g19
g20
sg21
I01
sg22
S'ATLAS_BTag_BEFF_DOWN'
p1306
sg24
I01
sg25
S'ATLAS_BTag_BEFF_UP'
p1307
sg27
I00
sba(iTools.Systematics.sys_classes
Sys
p1308
(dp1309
g19
g30
sg21
I01
sg22
S'ATLAS_BTag_CEFF_DOWN'
p1310
sg24
I01
sg25
S'ATLAS_BTag_CEFF_UP'
p1311
sg27
I00
sba(iTools.Systematics.sys_classes
Sys
p1312
(dp1313
g19
g35
sg21
I01
sg22
S'ATLAS_BTag_LEFF_DOWN'
p1314
sg24
I01
sg25
S'ATLAS_BTag_LEFF_UP'
p1315
sg27
I00
sba(iTools.Systematics.sys_classes
Sys
p1316
(dp1317
g19
g40
sg21
I00
sg22
S'ATLAS_EL_SCALE_ZEE_DOWN'
p1318
sg24
I01
sg25
S'ATLAS_EL_SCALE_ZEE_UP'
p1319
sg27
I00
sba(iTools.Systematics.sys_classes
Sys
p1320
(dp1321
g19
g45
sg21
I00
sg22
S'ATLAS_EL_SCALE_R12_DOWN'
p1322
sg24
I01
sg25
S'ATLAS_EL_SCALE_R12_UP'
p1323
sg27
I00
sba(iTools.Systematics.sys_classes
Sys
p1324
(dp1325
g19
g50
sg21
I00
sg22
S'ATLAS_EL_SCALE_PS_DOWN'
p1326
sg24
I01
sg25
S'ATLAS_EL_SCALE_PS_UP'
p1327
sg27
I00
sba(iTools.Systematics.sys_classes
Sys
p1328
(dp1329
g19
g55
sg21
I00
sg22
S'ATLAS_EL_SCALE_LOWPT_DOWN'
p1330
sg24
I01
sg25
S'ATLAS_EL_SCALE_LOWPT_UP'
p1331
sg27
I00
sba(iTools.Systematics.sys_classes
Sys
p1332
(dp1333
g19
g60
sg21
I01
sg22
S'ATLAS_EL_RES_DOWN'
p1334
sg24
I01
sg25
S'ATLAS_EL_RES_UP'
p1335
sg27
I00
sba(iTools.Systematics.sys_classes
Sys
p1336
(dp1337
g19
g65
sg21
I01
sg22
S'ATLAS_EL_EFF_ID_DOWN'
p1338
sg24
I01
sg25
S'ATLAS_EL_EFF_ID_UP'
p1339
sg27
I00
sba(iTools.Systematics.sys_classes
Sys
p1340
(dp1341
g19
g70
sg21
I01
sg22
S'ATLAS_EL_EFF_ISO_DOWN'
p1342
sg24
I01
sg25
S'ATLAS_EL_EFF_ISO_UP'
p1343
sg27
I00
sba(iTools.Systematics.sys_classes
Sys
p1344
(dp1345
g19
g75
sg21
I01
sg22
S'ATLAS_EL_EFF_TRIG_DOWN'
p1346
sg24
I01
sg25
S'ATLAS_EL_EFF_TRIG_UP'
p1347
sg27
I00
sba(iTools.Systematics.sys_classes
Sys
p1348
(dp1349
g19
g80
sg21
I00
sg22
S'ATLAS_JER_2012_DOWN'
p1350
sg24
I01
sg25
S'ATLAS_JER_2012_UP'
p1351
sg27
I00
sba(iTools.Systematics.sys_classes
Sys
p1352
(dp1353
g19
g85
sg21
I00
sg22
S'ATLAS_JES_2012_Statistical1_DOWN'
p1354
sg24
I01
sg25
S'ATLAS_JES_2012_Statistical1_UP'
p1355
sg27
I00
sba(iTools.Systematics.sys_classes
Sys
p1356
(dp1357
g19
g90
sg21
I00
sg22
S'ATLAS_JES_2012_Modelling1_DOWN'
p1358
sg24
I01
sg25
S'ATLAS_JES_2012_Modelling1_UP'
p1359
sg27
I00
sba(iTools.Systematics.sys_classes
Sys
p1360
(dp1361
g19
g95
sg21
I00
sg22
S'ATLAS_JES_2012_Detector1_DOWN'
p1362
sg24
I01
sg25
S'ATLAS_JES_2012_Detector1_UP'
p1363
sg27
I00
sba(iTools.Systematics.sys_classes
Sys
p1364
(dp1365
g19
g100
sg21
I00
sg22
S'ATLAS_JES_2012_EtaModelling_DOWN'
p1366
sg24
I01
sg25
S'ATLAS_JES_2012_EtaModelling_UP'
p1367
sg27
I00
sba(iTools.Systematics.sys_classes
Sys
p1368
(dp1369
g19
g105
sg21
I00
sg22
S'ATLAS_JES_2012_Eta_StatMethod_DOWN'
p1370
sg24
I01
sg25
S'ATLAS_JES_2012_Eta_StatMethod_UP'
p1371
sg27
I00
sba(iTools.Systematics.sys_classes
Sys
p1372
(dp1373
g19
g110
sg21
I00
sg22
S'ATLAS_JES_2012_PileRho_TAU_DOWN'
p1374
sg24
I01
sg25
S'ATLAS_JES_2012_PileRho_TAU_UP'
p1375
sg27
I00
sba(iTools.Systematics.sys_classes
Sys
p1376
(dp1377
g19
g115
sg21
I00
sg22
S'ATLAS_JES_NPV_DOWN'
p1378
sg24
I01
sg25
S'ATLAS_JES_NPV_UP'
p1379
sg27
I00
sba(iTools.Systematics.sys_classes
Sys
p1380
(dp1381
g19
g120
sg21
I00
sg22
S'ATLAS_JES_Mu_DOWN'
p1382
sg24
I01
sg25
S'ATLAS_JES_Mu_UP'
p1383
sg27
I00
sba(iTools.Systematics.sys_classes
Sys
p1384
(dp1385
g19
g125
sg21
I00
sg22
S'ATLAS_JES_FlavComp_TAU_DOWN'
p1386
sg24
I01
sg25
S'ATLAS_JES_FlavComp_TAU_UP'
p1387
sg27
I00
sba(iTools.Systematics.sys_classes
Sys
p1388
(dp1389
g19
g130
sg21
I00
sg22
S'ATLAS_JES_FlavResp_DOWN'
p1390
sg24
I01
sg25
S'ATLAS_JES_FlavResp_UP'
p1391
sg27
I00
sba(iTools.Systematics.sys_classes
Sys
p1392
(dp1393
g19
g135
sg21
I00
sg22
S'ATLAS_JES_Flavb_DOWN'
p1394
sg24
I01
sg25
S'ATLAS_JES_Flavb_UP'
p1395
sg27
I00
sba(iTools.Systematics.sys_classes
Sys
p1396
(dp1397
g19
g140
sg21
I00
sg22
S'ATLAS_JVF_2012_DOWN'
p1398
sg24
I01
sg25
S'ATLAS_JVF_2012_UP'
p1399
sg27
I00
sba(iTools.Systematics.sys_classes
Sys
p1400
(dp1401
g19
g145
sg21
I00
sg22
S'ATLAS_MET_RESOSOFT_DOWN'
p1402
sg24
I01
sg25
S'ATLAS_MET_RESOSOFT_UP'
p1403
sg27
I00
sba(iTools.Systematics.sys_classes
Sys
p1404
(dp1405
g19
g150
sg21
I00
sg22
S'ATLAS_MET_SCALESOFT_DOWN'
p1406
sg24
I01
sg25
S'ATLAS_MET_SCALESOFT_UP'
p1407
sg27
I00
sba(iTools.Systematics.sys_classes
Sys
p1408
(dp1409
g19
g155
sg21
I00
sg22
S'ATLAS_MU_MS_DOWN'
p1410
sg24
I01
sg25
S'ATLAS_MU_MS_UP'
p1411
sg27
I00
sba(iTools.Systematics.sys_classes
Sys
p1412
(dp1413
g19
g160
sg21
I01
sg22
S'ATLAS_MU_EFF_ID_DOWN'
p1414
sg24
I01
sg25
S'ATLAS_MU_EFF_ID_UP'
p1415
sg27
I00
sba(iTools.Systematics.sys_classes
Sys
p1416
(dp1417
g19
g165
sg21
I01
sg22
S'ATLAS_MU_EFF_ISO_DOWN'
p1418
sg24
I01
sg25
S'ATLAS_MU_EFF_ISO_UP'
p1419
sg27
I00
sba(iTools.Systematics.sys_classes
Sys
p1420
(dp1421
g19
g170
sg21
I01
sg22
S'ATLAS_MU_EFF_TRIG_DOWN'
p1422
sg24
I01
sg25
S'ATLAS_MU_EFF_TRIG_UP'
p1423
sg27
I00
sba(iTools.Systematics.sys_classes
Sys
p1424
(dp1425
g19
g175
sg21
I01
sg22
S'ATLAS_PU_RESCALE_2012_DOWN'
p1426
sg24
I01
sg25
S'ATLAS_PU_RESCALE_2012_UP'
p1427
sg27
I00
sba(iTools.Systematics.sys_classes
Sys
p1428
(dp1429
g19
g180
sg21
I01
sg22
S'ATLAS_TAU_EFAKE_2012_DOWN'
p1430
sg24
I01
sg25
S'ATLAS_TAU_EFAKE_2012_UP'
p1431
sg27
I00
sba(iTools.Systematics.sys_classes
Sys
p1432
(dp1433
g19
g185
sg21
I01
sg22
S'ATLAS_TAU_ID_2012_DOWN'
p1434
sg24
I01
sg25
S'ATLAS_TAU_ID_2012_UP'
p1435
sg27
I00
sba(iTools.Systematics.sys_classes
Sys
p1436
(dp1437
g19
g190
sg21
I01
sg22
S'ATLAS_TAU_ID_STAT_2012_DOWN'
p1438
sg24
I01
sg25
S'ATLAS_TAU_ID_STAT_2012_UP'
p1439
sg27
I00
sba(iTools.Systematics.sys_classes
Sys
p1440
(dp1441
g19
g195
sg21
I00
sg22
S'ATLAS_TES_TRUE_2012_DOWN'
p1442
sg24
I01
sg25
S'ATLAS_TES_TRUE_2012_UP'
p1443
sg27
I00
sbasg198
(lp1444
(iTools.Systematics.sys_classes
Sys
p1445
(dp1446
g19
g202
sg21
I00
sg22
F0.96399999999999997
sg24
I01
sg25
F1.036
sg27
I00
sba(iTools.Systematics.sys_classes
Sys
p1447
(dp1448
g19
g205
sg21
I00
sg22
F0.97199999999999998
sg24
I01
sg25
F1.028
sg27
I00
sba(iTools.Systematics.sys_classes
Sys
p1449
(dp1450
g19
g208
sg21
I00
sg22
F0.98999999999999999
sg24
I01
sg25
F1.01
sg27
I00
sba(iTools.Systematics.sys_classes
Sys
p1451
(dp1452
g19
g211
sg21
I00
sg22
F0.98999999999999999
sg24
I01
sg25
F1.01
sg27
I00
sba(iTools.Systematics.sys_classes
Sys
p1453
(dp1454
g19
g214
sg21
I00
sg22
F0.97599999999999998
sg24
I01
sg25
F1.024
sg27
I00
sbasg19
S'WH140'
p1455
sba(iTools.Systematics.sys_classes
Sample
p1456
(dp1457
g15
(lp1458
(iTools.Systematics.sys_classes
Sys
p1459
(dp1460
g19
g20
sg21
I01
sg22
S'ATLAS_BTag_BEFF_DOWN'
p1461
sg24
I01
sg25
S'ATLAS_BTag_BEFF_UP'
p1462
sg27
I00
sba(iTools.Systematics.sys_classes
Sys
p1463
(dp1464
g19
g30
sg21
I01
sg22
S'ATLAS_BTag_CEFF_DOWN'
p1465
sg24
I01
sg25
S'ATLAS_BTag_CEFF_UP'
p1466
sg27
I00
sba(iTools.Systematics.sys_classes
Sys
p1467
(dp1468
g19
g35
sg21
I01
sg22
S'ATLAS_BTag_LEFF_DOWN'
p1469
sg24
I01
sg25
S'ATLAS_BTag_LEFF_UP'
p1470
sg27
I00
sba(iTools.Systematics.sys_classes
Sys
p1471
(dp1472
g19
g40
sg21
I00
sg22
S'ATLAS_EL_SCALE_ZEE_DOWN'
p1473
sg24
I01
sg25
S'ATLAS_EL_SCALE_ZEE_UP'
p1474
sg27
I00
sba(iTools.Systematics.sys_classes
Sys
p1475
(dp1476
g19
g45
sg21
I00
sg22
S'ATLAS_EL_SCALE_R12_DOWN'
p1477
sg24
I01
sg25
S'ATLAS_EL_SCALE_R12_UP'
p1478
sg27
I00
sba(iTools.Systematics.sys_classes
Sys
p1479
(dp1480
g19
g50
sg21
I00
sg22
S'ATLAS_EL_SCALE_PS_DOWN'
p1481
sg24
I01
sg25
S'ATLAS_EL_SCALE_PS_UP'
p1482
sg27
I00
sba(iTools.Systematics.sys_classes
Sys
p1483
(dp1484
g19
g55
sg21
I00
sg22
S'ATLAS_EL_SCALE_LOWPT_DOWN'
p1485
sg24
I01
sg25
S'ATLAS_EL_SCALE_LOWPT_UP'
p1486
sg27
I00
sba(iTools.Systematics.sys_classes
Sys
p1487
(dp1488
g19
g60
sg21
I01
sg22
S'ATLAS_EL_RES_DOWN'
p1489
sg24
I01
sg25
S'ATLAS_EL_RES_UP'
p1490
sg27
I00
sba(iTools.Systematics.sys_classes
Sys
p1491
(dp1492
g19
g65
sg21
I01
sg22
S'ATLAS_EL_EFF_ID_DOWN'
p1493
sg24
I01
sg25
S'ATLAS_EL_EFF_ID_UP'
p1494
sg27
I00
sba(iTools.Systematics.sys_classes
Sys
p1495
(dp1496
g19
g70
sg21
I01
sg22
S'ATLAS_EL_EFF_ISO_DOWN'
p1497
sg24
I01
sg25
S'ATLAS_EL_EFF_ISO_UP'
p1498
sg27
I00
sba(iTools.Systematics.sys_classes
Sys
p1499
(dp1500
g19
g75
sg21
I01
sg22
S'ATLAS_EL_EFF_TRIG_DOWN'
p1501
sg24
I01
sg25
S'ATLAS_EL_EFF_TRIG_UP'
p1502
sg27
I00
sba(iTools.Systematics.sys_classes
Sys
p1503
(dp1504
g19
g80
sg21
I00
sg22
S'ATLAS_JER_2012_DOWN'
p1505
sg24
I01
sg25
S'ATLAS_JER_2012_UP'
p1506
sg27
I00
sba(iTools.Systematics.sys_classes
Sys
p1507
(dp1508
g19
g85
sg21
I00
sg22
S'ATLAS_JES_2012_Statistical1_DOWN'
p1509
sg24
I01
sg25
S'ATLAS_JES_2012_Statistical1_UP'
p1510
sg27
I00
sba(iTools.Systematics.sys_classes
Sys
p1511
(dp1512
g19
g90
sg21
I00
sg22
S'ATLAS_JES_2012_Modelling1_DOWN'
p1513
sg24
I01
sg25
S'ATLAS_JES_2012_Modelling1_UP'
p1514
sg27
I00
sba(iTools.Systematics.sys_classes
Sys
p1515
(dp1516
g19
g95
sg21
I00
sg22
S'ATLAS_JES_2012_Detector1_DOWN'
p1517
sg24
I01
sg25
S'ATLAS_JES_2012_Detector1_UP'
p1518
sg27
I00
sba(iTools.Systematics.sys_classes
Sys
p1519
(dp1520
g19
g100
sg21
I00
sg22
S'ATLAS_JES_2012_EtaModelling_DOWN'
p1521
sg24
I01
sg25
S'ATLAS_JES_2012_EtaModelling_UP'
p1522
sg27
I00
sba(iTools.Systematics.sys_classes
Sys
p1523
(dp1524
g19
g105
sg21
I00
sg22
S'ATLAS_JES_2012_Eta_StatMethod_DOWN'
p1525
sg24
I01
sg25
S'ATLAS_JES_2012_Eta_StatMethod_UP'
p1526
sg27
I00
sba(iTools.Systematics.sys_classes
Sys
p1527
(dp1528
g19
g110
sg21
I00
sg22
S'ATLAS_JES_2012_PileRho_TAU_DOWN'
p1529
sg24
I01
sg25
S'ATLAS_JES_2012_PileRho_TAU_UP'
p1530
sg27
I00
sba(iTools.Systematics.sys_classes
Sys
p1531
(dp1532
g19
g115
sg21
I00
sg22
S'ATLAS_JES_NPV_DOWN'
p1533
sg24
I01
sg25
S'ATLAS_JES_NPV_UP'
p1534
sg27
I00
sba(iTools.Systematics.sys_classes
Sys
p1535
(dp1536
g19
g120
sg21
I00
sg22
S'ATLAS_JES_Mu_DOWN'
p1537
sg24
I01
sg25
S'ATLAS_JES_Mu_UP'
p1538
sg27
I00
sba(iTools.Systematics.sys_classes
Sys
p1539
(dp1540
g19
g125
sg21
I00
sg22
S'ATLAS_JES_FlavComp_TAU_DOWN'
p1541
sg24
I01
sg25
S'ATLAS_JES_FlavComp_TAU_UP'
p1542
sg27
I00
sba(iTools.Systematics.sys_classes
Sys
p1543
(dp1544
g19
g130
sg21
I00
sg22
S'ATLAS_JES_FlavResp_DOWN'
p1545
sg24
I01
sg25
S'ATLAS_JES_FlavResp_UP'
p1546
sg27
I00
sba(iTools.Systematics.sys_classes
Sys
p1547
(dp1548
g19
g135
sg21
I00
sg22
S'ATLAS_JES_Flavb_DOWN'
p1549
sg24
I01
sg25
S'ATLAS_JES_Flavb_UP'
p1550
sg27
I00
sba(iTools.Systematics.sys_classes
Sys
p1551
(dp1552
g19
g140
sg21
I00
sg22
S'ATLAS_JVF_2012_DOWN'
p1553
sg24
I01
sg25
S'ATLAS_JVF_2012_UP'
p1554
sg27
I00
sba(iTools.Systematics.sys_classes
Sys
p1555
(dp1556
g19
g145
sg21
I00
sg22
S'ATLAS_MET_RESOSOFT_DOWN'
p1557
sg24
I01
sg25
S'ATLAS_MET_RESOSOFT_UP'
p1558
sg27
I00
sba(iTools.Systematics.sys_classes
Sys
p1559
(dp1560
g19
g150
sg21
I00
sg22
S'ATLAS_MET_SCALESOFT_DOWN'
p1561
sg24
I01
sg25
S'ATLAS_MET_SCALESOFT_UP'
p1562
sg27
I00
sba(iTools.Systematics.sys_classes
Sys
p1563
(dp1564
g19
g155
sg21
I00
sg22
S'ATLAS_MU_MS_DOWN'
p1565
sg24
I01
sg25
S'ATLAS_MU_MS_UP'
p1566
sg27
I00
sba(iTools.Systematics.sys_classes
Sys
p1567
(dp1568
g19
g160
sg21
I01
sg22
S'ATLAS_MU_EFF_ID_DOWN'
p1569
sg24
I01
sg25
S'ATLAS_MU_EFF_ID_UP'
p1570
sg27
I00
sba(iTools.Systematics.sys_classes
Sys
p1571
(dp1572
g19
g165
sg21
I01
sg22
S'ATLAS_MU_EFF_ISO_DOWN'
p1573
sg24
I01
sg25
S'ATLAS_MU_EFF_ISO_UP'
p1574
sg27
I00
sba(iTools.Systematics.sys_classes
Sys
p1575
(dp1576
g19
g170
sg21
I01
sg22
S'ATLAS_MU_EFF_TRIG_DOWN'
p1577
sg24
I01
sg25
S'ATLAS_MU_EFF_TRIG_UP'
p1578
sg27
I00
sba(iTools.Systematics.sys_classes
Sys
p1579
(dp1580
g19
g175
sg21
I01
sg22
S'ATLAS_PU_RESCALE_2012_DOWN'
p1581
sg24
I01
sg25
S'ATLAS_PU_RESCALE_2012_UP'
p1582
sg27
I00
sba(iTools.Systematics.sys_classes
Sys
p1583
(dp1584
g19
g180
sg21
I01
sg22
S'ATLAS_TAU_EFAKE_2012_DOWN'
p1585
sg24
I01
sg25
S'ATLAS_TAU_EFAKE_2012_UP'
p1586
sg27
I00
sba(iTools.Systematics.sys_classes
Sys
p1587
(dp1588
g19
g185
sg21
I01
sg22
S'ATLAS_TAU_ID_2012_DOWN'
p1589
sg24
I01
sg25
S'ATLAS_TAU_ID_2012_UP'
p1590
sg27
I00
sba(iTools.Systematics.sys_classes
Sys
p1591
(dp1592
g19
g190
sg21
I01
sg22
S'ATLAS_TAU_ID_STAT_2012_DOWN'
p1593
sg24
I01
sg25
S'ATLAS_TAU_ID_STAT_2012_UP'
p1594
sg27
I00
sba(iTools.Systematics.sys_classes
Sys
p1595
(dp1596
g19
g195
sg21
I00
sg22
S'ATLAS_TES_TRUE_2012_DOWN'
p1597
sg24
I01
sg25
S'ATLAS_TES_TRUE_2012_UP'
p1598
sg27
I00
sbasg198
(lp1599
(iTools.Systematics.sys_classes
Sys
p1600
(dp1601
g19
g202
sg21
I00
sg22
F0.96699999999999997
sg24
I01
sg25
F1.0329999999999999
sg27
I00
sba(iTools.Systematics.sys_classes
Sys
p1602
(dp1603
g19
g205
sg21
I00
sg22
F0.97199999999999998
sg24
I01
sg25
F1.028
sg27
I00
sba(iTools.Systematics.sys_classes
Sys
p1604
(dp1605
g19
g208
sg21
I00
sg22
F0.98999999999999999
sg24
I01
sg25
F1.01
sg27
I00
sba(iTools.Systematics.sys_classes
Sys
p1606
(dp1607
g19
g211
sg21
I00
sg22
F0.98999999999999999
sg24
I01
sg25
F1.01
sg27
I00
sba(iTools.Systematics.sys_classes
Sys
p1608
(dp1609
g19
g214
sg21
I00
sg22
F0.97599999999999998
sg24
I01
sg25
F1.024
sg27
I00
sbasg19
S'WH145'
p1610
sba(iTools.Systematics.sys_classes
Sample
p1611
(dp1612
g15
(lp1613
(iTools.Systematics.sys_classes
Sys
p1614
(dp1615
g19
g20
sg21
I01
sg22
S'ATLAS_BTag_BEFF_DOWN'
p1616
sg24
I01
sg25
S'ATLAS_BTag_BEFF_UP'
p1617
sg27
I00
sba(iTools.Systematics.sys_classes
Sys
p1618
(dp1619
g19
g30
sg21
I01
sg22
S'ATLAS_BTag_CEFF_DOWN'
p1620
sg24
I01
sg25
S'ATLAS_BTag_CEFF_UP'
p1621
sg27
I00
sba(iTools.Systematics.sys_classes
Sys
p1622
(dp1623
g19
g35
sg21
I01
sg22
S'ATLAS_BTag_LEFF_DOWN'
p1624
sg24
I01
sg25
S'ATLAS_BTag_LEFF_UP'
p1625
sg27
I00
sba(iTools.Systematics.sys_classes
Sys
p1626
(dp1627
g19
g40
sg21
I00
sg22
S'ATLAS_EL_SCALE_ZEE_DOWN'
p1628
sg24
I01
sg25
S'ATLAS_EL_SCALE_ZEE_UP'
p1629
sg27
I00
sba(iTools.Systematics.sys_classes
Sys
p1630
(dp1631
g19
g45
sg21
I00
sg22
S'ATLAS_EL_SCALE_R12_DOWN'
p1632
sg24
I01
sg25
S'ATLAS_EL_SCALE_R12_UP'
p1633
sg27
I00
sba(iTools.Systematics.sys_classes
Sys
p1634
(dp1635
g19
g50
sg21
I00
sg22
S'ATLAS_EL_SCALE_PS_DOWN'
p1636
sg24
I01
sg25
S'ATLAS_EL_SCALE_PS_UP'
p1637
sg27
I00
sba(iTools.Systematics.sys_classes
Sys
p1638
(dp1639
g19
g55
sg21
I00
sg22
S'ATLAS_EL_SCALE_LOWPT_DOWN'
p1640
sg24
I01
sg25
S'ATLAS_EL_SCALE_LOWPT_UP'
p1641
sg27
I00
sba(iTools.Systematics.sys_classes
Sys
p1642
(dp1643
g19
g60
sg21
I01
sg22
S'ATLAS_EL_RES_DOWN'
p1644
sg24
I01
sg25
S'ATLAS_EL_RES_UP'
p1645
sg27
I00
sba(iTools.Systematics.sys_classes
Sys
p1646
(dp1647
g19
g65
sg21
I01
sg22
S'ATLAS_EL_EFF_ID_DOWN'
p1648
sg24
I01
sg25
S'ATLAS_EL_EFF_ID_UP'
p1649
sg27
I00
sba(iTools.Systematics.sys_classes
Sys
p1650
(dp1651
g19
g70
sg21
I01
sg22
S'ATLAS_EL_EFF_ISO_DOWN'
p1652
sg24
I01
sg25
S'ATLAS_EL_EFF_ISO_UP'
p1653
sg27
I00
sba(iTools.Systematics.sys_classes
Sys
p1654
(dp1655
g19
g75
sg21
I01
sg22
S'ATLAS_EL_EFF_TRIG_DOWN'
p1656
sg24
I01
sg25
S'ATLAS_EL_EFF_TRIG_UP'
p1657
sg27
I00
sba(iTools.Systematics.sys_classes
Sys
p1658
(dp1659
g19
g80
sg21
I00
sg22
S'ATLAS_JER_2012_DOWN'
p1660
sg24
I01
sg25
S'ATLAS_JER_2012_UP'
p1661
sg27
I00
sba(iTools.Systematics.sys_classes
Sys
p1662
(dp1663
g19
g85
sg21
I00
sg22
S'ATLAS_JES_2012_Statistical1_DOWN'
p1664
sg24
I01
sg25
S'ATLAS_JES_2012_Statistical1_UP'
p1665
sg27
I00
sba(iTools.Systematics.sys_classes
Sys
p1666
(dp1667
g19
g90
sg21
I00
sg22
S'ATLAS_JES_2012_Modelling1_DOWN'
p1668
sg24
I01
sg25
S'ATLAS_JES_2012_Modelling1_UP'
p1669
sg27
I00
sba(iTools.Systematics.sys_classes
Sys
p1670
(dp1671
g19
g95
sg21
I00
sg22
S'ATLAS_JES_2012_Detector1_DOWN'
p1672
sg24
I01
sg25
S'ATLAS_JES_2012_Detector1_UP'
p1673
sg27
I00
sba(iTools.Systematics.sys_classes
Sys
p1674
(dp1675
g19
g100
sg21
I00
sg22
S'ATLAS_JES_2012_EtaModelling_DOWN'
p1676
sg24
I01
sg25
S'ATLAS_JES_2012_EtaModelling_UP'
p1677
sg27
I00
sba(iTools.Systematics.sys_classes
Sys
p1678
(dp1679
g19
g105
sg21
I00
sg22
S'ATLAS_JES_2012_Eta_StatMethod_DOWN'
p1680
sg24
I01
sg25
S'ATLAS_JES_2012_Eta_StatMethod_UP'
p1681
sg27
I00
sba(iTools.Systematics.sys_classes
Sys
p1682
(dp1683
g19
g110
sg21
I00
sg22
S'ATLAS_JES_2012_PileRho_TAU_DOWN'
p1684
sg24
I01
sg25
S'ATLAS_JES_2012_PileRho_TAU_UP'
p1685
sg27
I00
sba(iTools.Systematics.sys_classes
Sys
p1686
(dp1687
g19
g115
sg21
I00
sg22
S'ATLAS_JES_NPV_DOWN'
p1688
sg24
I01
sg25
S'ATLAS_JES_NPV_UP'
p1689
sg27
I00
sba(iTools.Systematics.sys_classes
Sys
p1690
(dp1691
g19
g120
sg21
I00
sg22
S'ATLAS_JES_Mu_DOWN'
p1692
sg24
I01
sg25
S'ATLAS_JES_Mu_UP'
p1693
sg27
I00
sba(iTools.Systematics.sys_classes
Sys
p1694
(dp1695
g19
g125
sg21
I00
sg22
S'ATLAS_JES_FlavComp_TAU_DOWN'
p1696
sg24
I01
sg25
S'ATLAS_JES_FlavComp_TAU_UP'
p1697
sg27
I00
sba(iTools.Systematics.sys_classes
Sys
p1698
(dp1699
g19
g130
sg21
I00
sg22
S'ATLAS_JES_FlavResp_DOWN'
p1700
sg24
I01
sg25
S'ATLAS_JES_FlavResp_UP'
p1701
sg27
I00
sba(iTools.Systematics.sys_classes
Sys
p1702
(dp1703
g19
g135
sg21
I00
sg22
S'ATLAS_JES_Flavb_DOWN'
p1704
sg24
I01
sg25
S'ATLAS_JES_Flavb_UP'
p1705
sg27
I00
sba(iTools.Systematics.sys_classes
Sys
p1706
(dp1707
g19
g140
sg21
I00
sg22
S'ATLAS_JVF_2012_DOWN'
p1708
sg24
I01
sg25
S'ATLAS_JVF_2012_UP'
p1709
sg27
I00
sba(iTools.Systematics.sys_classes
Sys
p1710
(dp1711
g19
g145
sg21
I00
sg22
S'ATLAS_MET_RESOSOFT_DOWN'
p1712
sg24
I01
sg25
S'ATLAS_MET_RESOSOFT_UP'
p1713
sg27
I00
sba(iTools.Systematics.sys_classes
Sys
p1714
(dp1715
g19
g150
sg21
I00
sg22
S'ATLAS_MET_SCALESOFT_DOWN'
p1716
sg24
I01
sg25
S'ATLAS_MET_SCALESOFT_UP'
p1717
sg27
I00
sba(iTools.Systematics.sys_classes
Sys
p1718
(dp1719
g19
g155
sg21
I00
sg22
S'ATLAS_MU_MS_DOWN'
p1720
sg24
I01
sg25
S'ATLAS_MU_MS_UP'
p1721
sg27
I00
sba(iTools.Systematics.sys_classes
Sys
p1722
(dp1723
g19
g160
sg21
I01
sg22
S'ATLAS_MU_EFF_ID_DOWN'
p1724
sg24
I01
sg25
S'ATLAS_MU_EFF_ID_UP'
p1725
sg27
I00
sba(iTools.Systematics.sys_classes
Sys
p1726
(dp1727
g19
g165
sg21
I01
sg22
S'ATLAS_MU_EFF_ISO_DOWN'
p1728
sg24
I01
sg25
S'ATLAS_MU_EFF_ISO_UP'
p1729
sg27
I00
sba(iTools.Systematics.sys_classes
Sys
p1730
(dp1731
g19
g170
sg21
I01
sg22
S'ATLAS_MU_EFF_TRIG_DOWN'
p1732
sg24
I01
sg25
S'ATLAS_MU_EFF_TRIG_UP'
p1733
sg27
I00
sba(iTools.Systematics.sys_classes
Sys
p1734
(dp1735
g19
g175
sg21
I01
sg22
S'ATLAS_PU_RESCALE_2012_DOWN'
p1736
sg24
I01
sg25
S'ATLAS_PU_RESCALE_2012_UP'
p1737
sg27
I00
sba(iTools.Systematics.sys_classes
Sys
p1738
(dp1739
g19
g180
sg21
I01
sg22
S'ATLAS_TAU_EFAKE_2012_DOWN'
p1740
sg24
I01
sg25
S'ATLAS_TAU_EFAKE_2012_UP'
p1741
sg27
I00
sba(iTools.Systematics.sys_classes
Sys
p1742
(dp1743
g19
g185
sg21
I01
sg22
S'ATLAS_TAU_ID_2012_DOWN'
p1744
sg24
I01
sg25
S'ATLAS_TAU_ID_2012_UP'
p1745
sg27
I00
sba(iTools.Systematics.sys_classes
Sys
p1746
(dp1747
g19
g190
sg21
I01
sg22
S'ATLAS_TAU_ID_STAT_2012_DOWN'
p1748
sg24
I01
sg25
S'ATLAS_TAU_ID_STAT_2012_UP'
p1749
sg27
I00
sba(iTools.Systematics.sys_classes
Sys
p1750
(dp1751
g19
g195
sg21
I00
sg22
S'ATLAS_TES_TRUE_2012_DOWN'
p1752
sg24
I01
sg25
S'ATLAS_TES_TRUE_2012_UP'
p1753
sg27
I00
sbasg198
(lp1754
(iTools.Systematics.sys_classes
Sys
p1755
(dp1756
g19
g202
sg21
I00
sg22
F0.96899999999999997
sg24
I01
sg25
F1.03
sg27
I00
sba(iTools.Systematics.sys_classes
Sys
p1757
(dp1758
g19
g205
sg21
I00
sg22
F0.97199999999999998
sg24
I01
sg25
F1.028
sg27
I00
sba(iTools.Systematics.sys_classes
Sys
p1759
(dp1760
g19
g208
sg21
I00
sg22
F0.98999999999999999
sg24
I01
sg25
F1.01
sg27
I00
sba(iTools.Systematics.sys_classes
Sys
p1761
(dp1762
g19
g211
sg21
I00
sg22
F0.98999999999999999
sg24
I01
sg25
F1.01
sg27
I00
sba(iTools.Systematics.sys_classes
Sys
p1763
(dp1764
g19
g214
sg21
I00
sg22
F0.97399999999999998
sg24
I01
sg25
F1.026
sg27
I00
sbasg19
S'WH150'
p1765
sba(iTools.Systematics.sys_classes
Sample
p1766
(dp1767
g15
(lp1768
(iTools.Systematics.sys_classes
Sys
p1769
(dp1770
g19
g20
sg21
I01
sg22
S'ATLAS_BTag_BEFF_DOWN'
p1771
sg24
I01
sg25
S'ATLAS_BTag_BEFF_UP'
p1772
sg27
I00
sba(iTools.Systematics.sys_classes
Sys
p1773
(dp1774
g19
g30
sg21
I01
sg22
S'ATLAS_BTag_CEFF_DOWN'
p1775
sg24
I01
sg25
S'ATLAS_BTag_CEFF_UP'
p1776
sg27
I00
sba(iTools.Systematics.sys_classes
Sys
p1777
(dp1778
g19
g35
sg21
I01
sg22
S'ATLAS_BTag_LEFF_DOWN'
p1779
sg24
I01
sg25
S'ATLAS_BTag_LEFF_UP'
p1780
sg27
I00
sba(iTools.Systematics.sys_classes
Sys
p1781
(dp1782
g19
g40
sg21
I00
sg22
S'ATLAS_EL_SCALE_ZEE_DOWN'
p1783
sg24
I01
sg25
S'ATLAS_EL_SCALE_ZEE_UP'
p1784
sg27
I00
sba(iTools.Systematics.sys_classes
Sys
p1785
(dp1786
g19
g45
sg21
I00
sg22
S'ATLAS_EL_SCALE_R12_DOWN'
p1787
sg24
I01
sg25
S'ATLAS_EL_SCALE_R12_UP'
p1788
sg27
I00
sba(iTools.Systematics.sys_classes
Sys
p1789
(dp1790
g19
g50
sg21
I00
sg22
S'ATLAS_EL_SCALE_PS_DOWN'
p1791
sg24
I01
sg25
S'ATLAS_EL_SCALE_PS_UP'
p1792
sg27
I00
sba(iTools.Systematics.sys_classes
Sys
p1793
(dp1794
g19
g55
sg21
I00
sg22
S'ATLAS_EL_SCALE_LOWPT_DOWN'
p1795
sg24
I01
sg25
S'ATLAS_EL_SCALE_LOWPT_UP'
p1796
sg27
I00
sba(iTools.Systematics.sys_classes
Sys
p1797
(dp1798
g19
g60
sg21
I01
sg22
S'ATLAS_EL_RES_DOWN'
p1799
sg24
I01
sg25
S'ATLAS_EL_RES_UP'
p1800
sg27
I00
sba(iTools.Systematics.sys_classes
Sys
p1801
(dp1802
g19
g65
sg21
I01
sg22
S'ATLAS_EL_EFF_ID_DOWN'
p1803
sg24
I01
sg25
S'ATLAS_EL_EFF_ID_UP'
p1804
sg27
I00
sba(iTools.Systematics.sys_classes
Sys
p1805
(dp1806
g19
g70
sg21
I01
sg22
S'ATLAS_EL_EFF_ISO_DOWN'
p1807
sg24
I01
sg25
S'ATLAS_EL_EFF_ISO_UP'
p1808
sg27
I00
sba(iTools.Systematics.sys_classes
Sys
p1809
(dp1810
g19
g75
sg21
I01
sg22
S'ATLAS_EL_EFF_TRIG_DOWN'
p1811
sg24
I01
sg25
S'ATLAS_EL_EFF_TRIG_UP'
p1812
sg27
I00
sba(iTools.Systematics.sys_classes
Sys
p1813
(dp1814
g19
g80
sg21
I00
sg22
S'ATLAS_JER_2012_DOWN'
p1815
sg24
I01
sg25
S'ATLAS_JER_2012_UP'
p1816
sg27
I00
sba(iTools.Systematics.sys_classes
Sys
p1817
(dp1818
g19
g85
sg21
I00
sg22
S'ATLAS_JES_2012_Statistical1_DOWN'
p1819
sg24
I01
sg25
S'ATLAS_JES_2012_Statistical1_UP'
p1820
sg27
I00
sba(iTools.Systematics.sys_classes
Sys
p1821
(dp1822
g19
g90
sg21
I00
sg22
S'ATLAS_JES_2012_Modelling1_DOWN'
p1823
sg24
I01
sg25
S'ATLAS_JES_2012_Modelling1_UP'
p1824
sg27
I00
sba(iTools.Systematics.sys_classes
Sys
p1825
(dp1826
g19
g95
sg21
I00
sg22
S'ATLAS_JES_2012_Detector1_DOWN'
p1827
sg24
I01
sg25
S'ATLAS_JES_2012_Detector1_UP'
p1828
sg27
I00
sba(iTools.Systematics.sys_classes
Sys
p1829
(dp1830
g19
g100
sg21
I00
sg22
S'ATLAS_JES_2012_EtaModelling_DOWN'
p1831
sg24
I01
sg25
S'ATLAS_JES_2012_EtaModelling_UP'
p1832
sg27
I00
sba(iTools.Systematics.sys_classes
Sys
p1833
(dp1834
g19
g105
sg21
I00
sg22
S'ATLAS_JES_2012_Eta_StatMethod_DOWN'
p1835
sg24
I01
sg25
S'ATLAS_JES_2012_Eta_StatMethod_UP'
p1836
sg27
I00
sba(iTools.Systematics.sys_classes
Sys
p1837
(dp1838
g19
g110
sg21
I00
sg22
S'ATLAS_JES_2012_PileRho_TAU_DOWN'
p1839
sg24
I01
sg25
S'ATLAS_JES_2012_PileRho_TAU_UP'
p1840
sg27
I00
sba(iTools.Systematics.sys_classes
Sys
p1841
(dp1842
g19
g115
sg21
I00
sg22
S'ATLAS_JES_NPV_DOWN'
p1843
sg24
I01
sg25
S'ATLAS_JES_NPV_UP'
p1844
sg27
I00
sba(iTools.Systematics.sys_classes
Sys
p1845
(dp1846
g19
g120
sg21
I00
sg22
S'ATLAS_JES_Mu_DOWN'
p1847
sg24
I01
sg25
S'ATLAS_JES_Mu_UP'
p1848
sg27
I00
sba(iTools.Systematics.sys_classes
Sys
p1849
(dp1850
g19
g125
sg21
I00
sg22
S'ATLAS_JES_FlavComp_TAU_DOWN'
p1851
sg24
I01
sg25
S'ATLAS_JES_FlavComp_TAU_UP'
p1852
sg27
I00
sba(iTools.Systematics.sys_classes
Sys
p1853
(dp1854
g19
g130
sg21
I00
sg22
S'ATLAS_JES_FlavResp_DOWN'
p1855
sg24
I01
sg25
S'ATLAS_JES_FlavResp_UP'
p1856
sg27
I00
sba(iTools.Systematics.sys_classes
Sys
p1857
(dp1858
g19
g135
sg21
I00
sg22
S'ATLAS_JES_Flavb_DOWN'
p1859
sg24
I01
sg25
S'ATLAS_JES_Flavb_UP'
p1860
sg27
I00
sba(iTools.Systematics.sys_classes
Sys
p1861
(dp1862
g19
g140
sg21
I00
sg22
S'ATLAS_JVF_2012_DOWN'
p1863
sg24
I01
sg25
S'ATLAS_JVF_2012_UP'
p1864
sg27
I00
sba(iTools.Systematics.sys_classes
Sys
p1865
(dp1866
g19
g145
sg21
I00
sg22
S'ATLAS_MET_RESOSOFT_DOWN'
p1867
sg24
I01
sg25
S'ATLAS_MET_RESOSOFT_UP'
p1868
sg27
I00
sba(iTools.Systematics.sys_classes
Sys
p1869
(dp1870
g19
g150
sg21
I00
sg22
S'ATLAS_MET_SCALESOFT_DOWN'
p1871
sg24
I01
sg25
S'ATLAS_MET_SCALESOFT_UP'
p1872
sg27
I00
sba(iTools.Systematics.sys_classes
Sys
p1873
(dp1874
g19
g155
sg21
I00
sg22
S'ATLAS_MU_MS_DOWN'
p1875
sg24
I01
sg25
S'ATLAS_MU_MS_UP'
p1876
sg27
I00
sba(iTools.Systematics.sys_classes
Sys
p1877
(dp1878
g19
g160
sg21
I01
sg22
S'ATLAS_MU_EFF_ID_DOWN'
p1879
sg24
I01
sg25
S'ATLAS_MU_EFF_ID_UP'
p1880
sg27
I00
sba(iTools.Systematics.sys_classes
Sys
p1881
(dp1882
g19
g165
sg21
I01
sg22
S'ATLAS_MU_EFF_ISO_DOWN'
p1883
sg24
I01
sg25
S'ATLAS_MU_EFF_ISO_UP'
p1884
sg27
I00
sba(iTools.Systematics.sys_classes
Sys
p1885
(dp1886
g19
g170
sg21
I01
sg22
S'ATLAS_MU_EFF_TRIG_DOWN'
p1887
sg24
I01
sg25
S'ATLAS_MU_EFF_TRIG_UP'
p1888
sg27
I00
sba(iTools.Systematics.sys_classes
Sys
p1889
(dp1890
g19
g175
sg21
I01
sg22
S'ATLAS_PU_RESCALE_2012_DOWN'
p1891
sg24
I01
sg25
S'ATLAS_PU_RESCALE_2012_UP'
p1892
sg27
I00
sba(iTools.Systematics.sys_classes
Sys
p1893
(dp1894
g19
g180
sg21
I01
sg22
S'ATLAS_TAU_EFAKE_2012_DOWN'
p1895
sg24
I01
sg25
S'ATLAS_TAU_EFAKE_2012_UP'
p1896
sg27
I00
sba(iTools.Systematics.sys_classes
Sys
p1897
(dp1898
g19
g185
sg21
I01
sg22
S'ATLAS_TAU_ID_2012_DOWN'
p1899
sg24
I01
sg25
S'ATLAS_TAU_ID_2012_UP'
p1900
sg27
I00
sba(iTools.Systematics.sys_classes
Sys
p1901
(dp1902
g19
g190
sg21
I01
sg22
S'ATLAS_TAU_ID_STAT_2012_DOWN'
p1903
sg24
I01
sg25
S'ATLAS_TAU_ID_STAT_2012_UP'
p1904
sg27
I00
sba(iTools.Systematics.sys_classes
Sys
p1905
(dp1906
g19
g195
sg21
I00
sg22
S'ATLAS_TES_TRUE_2012_DOWN'
p1907
sg24
I01
sg25
S'ATLAS_TES_TRUE_2012_UP'
p1908
sg27
I00
sbasg198
(lp1909
(iTools.Systematics.sys_classes
Sys
p1910
(dp1911
g19
g205
sg21
I00
sg22
F0.97199999999999998
sg24
I01
sg25
F1.028
sg27
I00
sbasg19
S'MC_WHhh'
p1912
sba(iTools.Systematics.sys_classes
Sample
p1913
(dp1914
g15
(lp1915
(iTools.Systematics.sys_classes
Sys
p1916
(dp1917
g19
S'ATLAS_TAU_FF'
p1918
sg21
I01
sg22
S'ATLAS_TAU_FF_DOWN'
p1919
sg24
I01
sg25
S'ATLAS_TAU_FF_UP'
p1920
sg27
I00
sbasg198
(lp1921
sg19
S'WHhh_AntitauEvents'
p1922
sbasS'path'
p1923
S''
p1924
sba(iTools.Systematics.sys_classes
LimitChannel
p1925
(dp1926
g6
S'zh'
p1927
sg8
g9
sg10
I00
sg11
(lp1928
(iTools.Systematics.sys_classes
Sample
p1929
(dp1930
g15
(lp1931
(iTools.Systematics.sys_classes
Sys
p1932
(dp1933
g19
g40
sg21
I00
sg22
S'ATLAS_EL_SCALE_ZEE_DOWN'
p1934
sg24
I01
sg25
S'ATLAS_EL_SCALE_ZEE_UP'
p1935
sg27
I00
sba(iTools.Systematics.sys_classes
Sys
p1936
(dp1937
g19
g45
sg21
I00
sg22
S'ATLAS_EL_SCALE_R12_DOWN'
p1938
sg24
I01
sg25
S'ATLAS_EL_SCALE_R12_UP'
p1939
sg27
I00
sba(iTools.Systematics.sys_classes
Sys
p1940
(dp1941
g19
g50
sg21
I00
sg22
S'ATLAS_EL_SCALE_PS_DOWN'
p1942
sg24
I01
sg25
S'ATLAS_EL_SCALE_PS_UP'
p1943
sg27
I00
sba(iTools.Systematics.sys_classes
Sys
p1944
(dp1945
g19
g55
sg21
I00
sg22
S'ATLAS_EL_SCALE_LOWPT_DOWN'
p1946
sg24
I01
sg25
S'ATLAS_EL_SCALE_LOWPT_UP'
p1947
sg27
I00
sba(iTools.Systematics.sys_classes
Sys
p1948
(dp1949
g19
g60
sg21
I01
sg22
S'ATLAS_EL_RES_DOWN'
p1950
sg24
I01
sg25
S'ATLAS_EL_RES_UP'
p1951
sg27
I00
sba(iTools.Systematics.sys_classes
Sys
p1952
(dp1953
g19
g65
sg21
I01
sg22
S'ATLAS_EL_EFF_ID_DOWN'
p1954
sg24
I01
sg25
S'ATLAS_EL_EFF_ID_UP'
p1955
sg27
I00
sba(iTools.Systematics.sys_classes
Sys
p1956
(dp1957
g19
g70
sg21
I01
sg22
S'ATLAS_EL_EFF_ISO_DOWN'
p1958
sg24
I01
sg25
S'ATLAS_EL_EFF_ISO_UP'
p1959
sg27
I00
sba(iTools.Systematics.sys_classes
Sys
p1960
(dp1961
g19
g75
sg21
I01
sg22
S'ATLAS_EL_EFF_TRIG_DOWN'
p1962
sg24
I01
sg25
S'ATLAS_EL_EFF_TRIG_UP'
p1963
sg27
I00
sba(iTools.Systematics.sys_classes
Sys
p1964
(dp1965
g19
g80
sg21
I00
sg22
S'ATLAS_JER_2012_DOWN'
p1966
sg24
I01
sg25
S'ATLAS_JER_2012_UP'
p1967
sg27
I00
sba(iTools.Systematics.sys_classes
Sys
p1968
(dp1969
g19
g85
sg21
I00
sg22
S'ATLAS_JES_2012_Statistical1_DOWN'
p1970
sg24
I01
sg25
S'ATLAS_JES_2012_Statistical1_UP'
p1971
sg27
I00
sba(iTools.Systematics.sys_classes
Sys
p1972
(dp1973
g19
g90
sg21
I00
sg22
S'ATLAS_JES_2012_Modelling1_DOWN'
p1974
sg24
I01
sg25
S'ATLAS_JES_2012_Modelling1_UP'
p1975
sg27
I00
sba(iTools.Systematics.sys_classes
Sys
p1976
(dp1977
g19
g95
sg21
I00
sg22
S'ATLAS_JES_2012_Detector1_DOWN'
p1978
sg24
I01
sg25
S'ATLAS_JES_2012_Detector1_UP'
p1979
sg27
I00
sba(iTools.Systematics.sys_classes
Sys
p1980
(dp1981
g19
g100
sg21
I00
sg22
S'ATLAS_JES_2012_EtaModelling_DOWN'
p1982
sg24
I01
sg25
S'ATLAS_JES_2012_EtaModelling_UP'
p1983
sg27
I00
sba(iTools.Systematics.sys_classes
Sys
p1984
(dp1985
g19
g105
sg21
I00
sg22
S'ATLAS_JES_2012_Eta_StatMethod_DOWN'
p1986
sg24
I01
sg25
S'ATLAS_JES_2012_Eta_StatMethod_UP'
p1987
sg27
I00
sba(iTools.Systematics.sys_classes
Sys
p1988
(dp1989
g19
g110
sg21
I00
sg22
S'ATLAS_JES_2012_PileRho_TAU_DOWN'
p1990
sg24
I01
sg25
S'ATLAS_JES_2012_PileRho_TAU_UP'
p1991
sg27
I00
sba(iTools.Systematics.sys_classes
Sys
p1992
(dp1993
g19
g115
sg21
I00
sg22
S'ATLAS_JES_NPV_DOWN'
p1994
sg24
I01
sg25
S'ATLAS_JES_NPV_UP'
p1995
sg27
I00
sba(iTools.Systematics.sys_classes
Sys
p1996
(dp1997
g19
g120
sg21
I00
sg22
S'ATLAS_JES_Mu_DOWN'
p1998
sg24
I01
sg25
S'ATLAS_JES_Mu_UP'
p1999
sg27
I00
sba(iTools.Systematics.sys_classes
Sys
p2000
(dp2001
g19
g125
sg21
I00
sg22
S'ATLAS_JES_FlavComp_TAU_DOWN'
p2002
sg24
I01
sg25
S'ATLAS_JES_FlavComp_TAU_UP'
p2003
sg27
I00
sba(iTools.Systematics.sys_classes
Sys
p2004
(dp2005
g19
g130
sg21
I00
sg22
S'ATLAS_JES_FlavResp_DOWN'
p2006
sg24
I01
sg25
S'ATLAS_JES_FlavResp_UP'
p2007
sg27
I00
sba(iTools.Systematics.sys_classes
Sys
p2008
(dp2009
g19
g135
sg21
I00
sg22
S'ATLAS_JES_Flavb_DOWN'
p2010
sg24
I01
sg25
S'ATLAS_JES_Flavb_UP'
p2011
sg27
I00
sba(iTools.Systematics.sys_classes
Sys
p2012
(dp2013
g19
g140
sg21
I00
sg22
S'ATLAS_JVF_2012_DOWN'
p2014
sg24
I01
sg25
S'ATLAS_JVF_2012_UP'
p2015
sg27
I00
sba(iTools.Systematics.sys_classes
Sys
p2016
(dp2017
g19
g145
sg21
I00
sg22
S'ATLAS_MET_RESOSOFT_DOWN'
p2018
sg24
I01
sg25
S'ATLAS_MET_RESOSOFT_UP'
p2019
sg27
I00
sba(iTools.Systematics.sys_classes
Sys
p2020
(dp2021
g19
g150
sg21
I00
sg22
S'ATLAS_MET_SCALESOFT_DOWN'
p2022
sg24
I01
sg25
S'ATLAS_MET_SCALESOFT_UP'
p2023
sg27
I00
sba(iTools.Systematics.sys_classes
Sys
p2024
(dp2025
g19
g155
sg21
I00
sg22
S'ATLAS_MU_MS_DOWN'
p2026
sg24
I01
sg25
S'ATLAS_MU_MS_UP'
p2027
sg27
I00
sba(iTools.Systematics.sys_classes
Sys
p2028
(dp2029
g19
g160
sg21
I01
sg22
S'ATLAS_MU_EFF_ID_DOWN'
p2030
sg24
I01
sg25
S'ATLAS_MU_EFF_ID_UP'
p2031
sg27
I00
sba(iTools.Systematics.sys_classes
Sys
p2032
(dp2033
g19
g165
sg21
I01
sg22
S'ATLAS_MU_EFF_ISO_DOWN'
p2034
sg24
I01
sg25
S'ATLAS_MU_EFF_ISO_UP'
p2035
sg27
I00
sba(iTools.Systematics.sys_classes
Sys
p2036
(dp2037
g19
g170
sg21
I01
sg22
S'ATLAS_MU_EFF_TRIG_DOWN'
p2038
sg24
I01
sg25
S'ATLAS_MU_EFF_TRIG_UP'
p2039
sg27
I00
sba(iTools.Systematics.sys_classes
Sys
p2040
(dp2041
g19
g175
sg21
I01
sg22
S'ATLAS_PU_RESCALE_2012_DOWN'
p2042
sg24
I01
sg25
S'ATLAS_PU_RESCALE_2012_UP'
p2043
sg27
I00
sba(iTools.Systematics.sys_classes
Sys
p2044
(dp2045
g19
g180
sg21
I01
sg22
S'ATLAS_TAU_EFAKE_2012_DOWN'
p2046
sg24
I01
sg25
S'ATLAS_TAU_EFAKE_2012_UP'
p2047
sg27
I00
sba(iTools.Systematics.sys_classes
Sys
p2048
(dp2049
g19
g185
sg21
I01
sg22
S'ATLAS_TAU_ID_2012_DOWN'
p2050
sg24
I01
sg25
S'ATLAS_TAU_ID_2012_UP'
p2051
sg27
I00
sba(iTools.Systematics.sys_classes
Sys
p2052
(dp2053
g19
g190
sg21
I01
sg22
S'ATLAS_TAU_ID_STAT_2012_DOWN'
p2054
sg24
I01
sg25
S'ATLAS_TAU_ID_STAT_2012_UP'
p2055
sg27
I00
sba(iTools.Systematics.sys_classes
Sys
p2056
(dp2057
g19
g195
sg21
I00
sg22
S'ATLAS_TES_TRUE_2012_DOWN'
p2058
sg24
I01
sg25
S'ATLAS_TES_TRUE_2012_UP'
p2059
sg27
I00
sbasg198
(lp2060
(iTools.Systematics.sys_classes
Sys
p2061
(dp2062
g19
g202
sg21
I00
sg22
F0.93300000000000005
sg24
I01
sg25
F1.069
sg27
I00
sba(iTools.Systematics.sys_classes
Sys
p2063
(dp2064
g19
g205
sg21
I00
sg22
F0.97199999999999998
sg24
I01
sg25
F1.028
sg27
I00
sba(iTools.Systematics.sys_classes
Sys
p2065
(dp2066
g19
S'QCDscale_ZH'
p2067
sg21
I00
sg22
F0.97599999999999998
sg24
I01
sg25
F1.024
sg27
I00
sba(iTools.Systematics.sys_classes
Sys
p2068
(dp2069
g19
g211
sg21
I00
sg22
F0.97899999999999998
sg24
I01
sg25
F1.0209999999999999
sg27
I00
sba(iTools.Systematics.sys_classes
Sys
p2070
(dp2071
g19
S'pdf_Higgs_ZH'
p2072
sg21
I00
sg22
F0.97699999999999998
sg24
I01
sg25
F1.0229999999999999
sg27
I00
sbasg19
S'ZH100'
p2073
sba(iTools.Systematics.sys_classes
Sample
p2074
(dp2075
g15
(lp2076
(iTools.Systematics.sys_classes
Sys
p2077
(dp2078
g19
g40
sg21
I00
sg22
S'ATLAS_EL_SCALE_ZEE_DOWN'
p2079
sg24
I01
sg25
S'ATLAS_EL_SCALE_ZEE_UP'
p2080
sg27
I00
sba(iTools.Systematics.sys_classes
Sys
p2081
(dp2082
g19
g45
sg21
I00
sg22
S'ATLAS_EL_SCALE_R12_DOWN'
p2083
sg24
I01
sg25
S'ATLAS_EL_SCALE_R12_UP'
p2084
sg27
I00
sba(iTools.Systematics.sys_classes
Sys
p2085
(dp2086
g19
g50
sg21
I00
sg22
S'ATLAS_EL_SCALE_PS_DOWN'
p2087
sg24
I01
sg25
S'ATLAS_EL_SCALE_PS_UP'
p2088
sg27
I00
sba(iTools.Systematics.sys_classes
Sys
p2089
(dp2090
g19
g55
sg21
I00
sg22
S'ATLAS_EL_SCALE_LOWPT_DOWN'
p2091
sg24
I01
sg25
S'ATLAS_EL_SCALE_LOWPT_UP'
p2092
sg27
I00
sba(iTools.Systematics.sys_classes
Sys
p2093
(dp2094
g19
g60
sg21
I01
sg22
S'ATLAS_EL_RES_DOWN'
p2095
sg24
I01
sg25
S'ATLAS_EL_RES_UP'
p2096
sg27
I00
sba(iTools.Systematics.sys_classes
Sys
p2097
(dp2098
g19
g65
sg21
I01
sg22
S'ATLAS_EL_EFF_ID_DOWN'
p2099
sg24
I01
sg25
S'ATLAS_EL_EFF_ID_UP'
p2100
sg27
I00
sba(iTools.Systematics.sys_classes
Sys
p2101
(dp2102
g19
g70
sg21
I01
sg22
S'ATLAS_EL_EFF_ISO_DOWN'
p2103
sg24
I01
sg25
S'ATLAS_EL_EFF_ISO_UP'
p2104
sg27
I00
sba(iTools.Systematics.sys_classes
Sys
p2105
(dp2106
g19
g75
sg21
I01
sg22
S'ATLAS_EL_EFF_TRIG_DOWN'
p2107
sg24
I01
sg25
S'ATLAS_EL_EFF_TRIG_UP'
p2108
sg27
I00
sba(iTools.Systematics.sys_classes
Sys
p2109
(dp2110
g19
g80
sg21
I00
sg22
S'ATLAS_JER_2012_DOWN'
p2111
sg24
I01
sg25
S'ATLAS_JER_2012_UP'
p2112
sg27
I00
sba(iTools.Systematics.sys_classes
Sys
p2113
(dp2114
g19
g85
sg21
I00
sg22
S'ATLAS_JES_2012_Statistical1_DOWN'
p2115
sg24
I01
sg25
S'ATLAS_JES_2012_Statistical1_UP'
p2116
sg27
I00
sba(iTools.Systematics.sys_classes
Sys
p2117
(dp2118
g19
g90
sg21
I00
sg22
S'ATLAS_JES_2012_Modelling1_DOWN'
p2119
sg24
I01
sg25
S'ATLAS_JES_2012_Modelling1_UP'
p2120
sg27
I00
sba(iTools.Systematics.sys_classes
Sys
p2121
(dp2122
g19
g95
sg21
I00
sg22
S'ATLAS_JES_2012_Detector1_DOWN'
p2123
sg24
I01
sg25
S'ATLAS_JES_2012_Detector1_UP'
p2124
sg27
I00
sba(iTools.Systematics.sys_classes
Sys
p2125
(dp2126
g19
g100
sg21
I00
sg22
S'ATLAS_JES_2012_EtaModelling_DOWN'
p2127
sg24
I01
sg25
S'ATLAS_JES_2012_EtaModelling_UP'
p2128
sg27
I00
sba(iTools.Systematics.sys_classes
Sys
p2129
(dp2130
g19
g105
sg21
I00
sg22
S'ATLAS_JES_2012_Eta_StatMethod_DOWN'
p2131
sg24
I01
sg25
S'ATLAS_JES_2012_Eta_StatMethod_UP'
p2132
sg27
I00
sba(iTools.Systematics.sys_classes
Sys
p2133
(dp2134
g19
g110
sg21
I00
sg22
S'ATLAS_JES_2012_PileRho_TAU_DOWN'
p2135
sg24
I01
sg25
S'ATLAS_JES_2012_PileRho_TAU_UP'
p2136
sg27
I00
sba(iTools.Systematics.sys_classes
Sys
p2137
(dp2138
g19
g115
sg21
I00
sg22
S'ATLAS_JES_NPV_DOWN'
p2139
sg24
I01
sg25
S'ATLAS_JES_NPV_UP'
p2140
sg27
I00
sba(iTools.Systematics.sys_classes
Sys
p2141
(dp2142
g19
g120
sg21
I00
sg22
S'ATLAS_JES_Mu_DOWN'
p2143
sg24
I01
sg25
S'ATLAS_JES_Mu_UP'
p2144
sg27
I00
sba(iTools.Systematics.sys_classes
Sys
p2145
(dp2146
g19
g125
sg21
I00
sg22
S'ATLAS_JES_FlavComp_TAU_DOWN'
p2147
sg24
I01
sg25
S'ATLAS_JES_FlavComp_TAU_UP'
p2148
sg27
I00
sba(iTools.Systematics.sys_classes
Sys
p2149
(dp2150
g19
g130
sg21
I00
sg22
S'ATLAS_JES_FlavResp_DOWN'
p2151
sg24
I01
sg25
S'ATLAS_JES_FlavResp_UP'
p2152
sg27
I00
sba(iTools.Systematics.sys_classes
Sys
p2153
(dp2154
g19
g135
sg21
I00
sg22
S'ATLAS_JES_Flavb_DOWN'
p2155
sg24
I01
sg25
S'ATLAS_JES_Flavb_UP'
p2156
sg27
I00
sba(iTools.Systematics.sys_classes
Sys
p2157
(dp2158
g19
g140
sg21
I00
sg22
S'ATLAS_JVF_2012_DOWN'
p2159
sg24
I01
sg25
S'ATLAS_JVF_2012_UP'
p2160
sg27
I00
sba(iTools.Systematics.sys_classes
Sys
p2161
(dp2162
g19
g145
sg21
I00
sg22
S'ATLAS_MET_RESOSOFT_DOWN'
p2163
sg24
I01
sg25
S'ATLAS_MET_RESOSOFT_UP'
p2164
sg27
I00
sba(iTools.Systematics.sys_classes
Sys
p2165
(dp2166
g19
g150
sg21
I00
sg22
S'ATLAS_MET_SCALESOFT_DOWN'
p2167
sg24
I01
sg25
S'ATLAS_MET_SCALESOFT_UP'
p2168
sg27
I00
sba(iTools.Systematics.sys_classes
Sys
p2169
(dp2170
g19
g155
sg21
I00
sg22
S'ATLAS_MU_MS_DOWN'
p2171
sg24
I01
sg25
S'ATLAS_MU_MS_UP'
p2172
sg27
I00
sba(iTools.Systematics.sys_classes
Sys
p2173
(dp2174
g19
g160
sg21
I01
sg22
S'ATLAS_MU_EFF_ID_DOWN'
p2175
sg24
I01
sg25
S'ATLAS_MU_EFF_ID_UP'
p2176
sg27
I00
sba(iTools.Systematics.sys_classes
Sys
p2177
(dp2178
g19
g165
sg21
I01
sg22
S'ATLAS_MU_EFF_ISO_DOWN'
p2179
sg24
I01
sg25
S'ATLAS_MU_EFF_ISO_UP'
p2180
sg27
I00
sba(iTools.Systematics.sys_classes
Sys
p2181
(dp2182
g19
g170
sg21
I01
sg22
S'ATLAS_MU_EFF_TRIG_DOWN'
p2183
sg24
I01
sg25
S'ATLAS_MU_EFF_TRIG_UP'
p2184
sg27
I00
sba(iTools.Systematics.sys_classes
Sys
p2185
(dp2186
g19
g175
sg21
I01
sg22
S'ATLAS_PU_RESCALE_2012_DOWN'
p2187
sg24
I01
sg25
S'ATLAS_PU_RESCALE_2012_UP'
p2188
sg27
I00
sba(iTools.Systematics.sys_classes
Sys
p2189
(dp2190
g19
g180
sg21
I01
sg22
S'ATLAS_TAU_EFAKE_2012_DOWN'
p2191
sg24
I01
sg25
S'ATLAS_TAU_EFAKE_2012_UP'
p2192
sg27
I00
sba(iTools.Systematics.sys_classes
Sys
p2193
(dp2194
g19
g185
sg21
I01
sg22
S'ATLAS_TAU_ID_2012_DOWN'
p2195
sg24
I01
sg25
S'ATLAS_TAU_ID_2012_UP'
p2196
sg27
I00
sba(iTools.Systematics.sys_classes
Sys
p2197
(dp2198
g19
g190
sg21
I01
sg22
S'ATLAS_TAU_ID_STAT_2012_DOWN'
p2199
sg24
I01
sg25
S'ATLAS_TAU_ID_STAT_2012_UP'
p2200
sg27
I00
sba(iTools.Systematics.sys_classes
Sys
p2201
(dp2202
g19
g195
sg21
I00
sg22
S'ATLAS_TES_TRUE_2012_DOWN'
p2203
sg24
I01
sg25
S'ATLAS_TES_TRUE_2012_UP'
p2204
sg27
I00
sbasg198
(lp2205
(iTools.Systematics.sys_classes
Sys
p2206
(dp2207
g19
g202
sg21
I00
sg22
F0.93300000000000005
sg24
I01
sg25
F1.0680000000000001
sg27
I00
sba(iTools.Systematics.sys_classes
Sys
p2208
(dp2209
g19
g205
sg21
I00
sg22
F0.97199999999999998
sg24
I01
sg25
F1.028
sg27
I00
sba(iTools.Systematics.sys_classes
Sys
p2210
(dp2211
g19
g2067
sg21
I00
sg22
F0.97499999999999998
sg24
I01
sg25
F1.0249999999999999
sg27
I00
sba(iTools.Systematics.sys_classes
Sys
p2212
(dp2213
g19
g211
sg21
I00
sg22
F0.97899999999999998
sg24
I01
sg25
F1.0209999999999999
sg27
I00
sba(iTools.Systematics.sys_classes
Sys
p2214
(dp2215
g19
g2072
sg21
I00
sg22
F0.97699999999999998
sg24
I01
sg25
F1.0229999999999999
sg27
I00
sbasg19
S'ZH105'
p2216
sba(iTools.Systematics.sys_classes
Sample
p2217
(dp2218
g15
(lp2219
(iTools.Systematics.sys_classes
Sys
p2220
(dp2221
g19
g40
sg21
I00
sg22
S'ATLAS_EL_SCALE_ZEE_DOWN'
p2222
sg24
I01
sg25
S'ATLAS_EL_SCALE_ZEE_UP'
p2223
sg27
I00
sba(iTools.Systematics.sys_classes
Sys
p2224
(dp2225
g19
g45
sg21
I00
sg22
S'ATLAS_EL_SCALE_R12_DOWN'
p2226
sg24
I01
sg25
S'ATLAS_EL_SCALE_R12_UP'
p2227
sg27
I00
sba(iTools.Systematics.sys_classes
Sys
p2228
(dp2229
g19
g50
sg21
I00
sg22
S'ATLAS_EL_SCALE_PS_DOWN'
p2230
sg24
I01
sg25
S'ATLAS_EL_SCALE_PS_UP'
p2231
sg27
I00
sba(iTools.Systematics.sys_classes
Sys
p2232
(dp2233
g19
g55
sg21
I00
sg22
S'ATLAS_EL_SCALE_LOWPT_DOWN'
p2234
sg24
I01
sg25
S'ATLAS_EL_SCALE_LOWPT_UP'
p2235
sg27
I00
sba(iTools.Systematics.sys_classes
Sys
p2236
(dp2237
g19
g60
sg21
I01
sg22
S'ATLAS_EL_RES_DOWN'
p2238
sg24
I01
sg25
S'ATLAS_EL_RES_UP'
p2239
sg27
I00
sba(iTools.Systematics.sys_classes
Sys
p2240
(dp2241
g19
g65
sg21
I01
sg22
S'ATLAS_EL_EFF_ID_DOWN'
p2242
sg24
I01
sg25
S'ATLAS_EL_EFF_ID_UP'
p2243
sg27
I00
sba(iTools.Systematics.sys_classes
Sys
p2244
(dp2245
g19
g70
sg21
I01
sg22
S'ATLAS_EL_EFF_ISO_DOWN'
p2246
sg24
I01
sg25
S'ATLAS_EL_EFF_ISO_UP'
p2247
sg27
I00
sba(iTools.Systematics.sys_classes
Sys
p2248
(dp2249
g19
g75
sg21
I01
sg22
S'ATLAS_EL_EFF_TRIG_DOWN'
p2250
sg24
I01
sg25
S'ATLAS_EL_EFF_TRIG_UP'
p2251
sg27
I00
sba(iTools.Systematics.sys_classes
Sys
p2252
(dp2253
g19
g80
sg21
I00
sg22
S'ATLAS_JER_2012_DOWN'
p2254
sg24
I01
sg25
S'ATLAS_JER_2012_UP'
p2255
sg27
I00
sba(iTools.Systematics.sys_classes
Sys
p2256
(dp2257
g19
g85
sg21
I00
sg22
S'ATLAS_JES_2012_Statistical1_DOWN'
p2258
sg24
I01
sg25
S'ATLAS_JES_2012_Statistical1_UP'
p2259
sg27
I00
sba(iTools.Systematics.sys_classes
Sys
p2260
(dp2261
g19
g90
sg21
I00
sg22
S'ATLAS_JES_2012_Modelling1_DOWN'
p2262
sg24
I01
sg25
S'ATLAS_JES_2012_Modelling1_UP'
p2263
sg27
I00
sba(iTools.Systematics.sys_classes
Sys
p2264
(dp2265
g19
g95
sg21
I00
sg22
S'ATLAS_JES_2012_Detector1_DOWN'
p2266
sg24
I01
sg25
S'ATLAS_JES_2012_Detector1_UP'
p2267
sg27
I00
sba(iTools.Systematics.sys_classes
Sys
p2268
(dp2269
g19
g100
sg21
I00
sg22
S'ATLAS_JES_2012_EtaModelling_DOWN'
p2270
sg24
I01
sg25
S'ATLAS_JES_2012_EtaModelling_UP'
p2271
sg27
I00
sba(iTools.Systematics.sys_classes
Sys
p2272
(dp2273
g19
g105
sg21
I00
sg22
S'ATLAS_JES_2012_Eta_StatMethod_DOWN'
p2274
sg24
I01
sg25
S'ATLAS_JES_2012_Eta_StatMethod_UP'
p2275
sg27
I00
sba(iTools.Systematics.sys_classes
Sys
p2276
(dp2277
g19
g110
sg21
I00
sg22
S'ATLAS_JES_2012_PileRho_TAU_DOWN'
p2278
sg24
I01
sg25
S'ATLAS_JES_2012_PileRho_TAU_UP'
p2279
sg27
I00
sba(iTools.Systematics.sys_classes
Sys
p2280
(dp2281
g19
g115
sg21
I00
sg22
S'ATLAS_JES_NPV_DOWN'
p2282
sg24
I01
sg25
S'ATLAS_JES_NPV_UP'
p2283
sg27
I00
sba(iTools.Systematics.sys_classes
Sys
p2284
(dp2285
g19
g120
sg21
I00
sg22
S'ATLAS_JES_Mu_DOWN'
p2286
sg24
I01
sg25
S'ATLAS_JES_Mu_UP'
p2287
sg27
I00
sba(iTools.Systematics.sys_classes
Sys
p2288
(dp2289
g19
g125
sg21
I00
sg22
S'ATLAS_JES_FlavComp_TAU_DOWN'
p2290
sg24
I01
sg25
S'ATLAS_JES_FlavComp_TAU_UP'
p2291
sg27
I00
sba(iTools.Systematics.sys_classes
Sys
p2292
(dp2293
g19
g130
sg21
I00
sg22
S'ATLAS_JES_FlavResp_DOWN'
p2294
sg24
I01
sg25
S'ATLAS_JES_FlavResp_UP'
p2295
sg27
I00
sba(iTools.Systematics.sys_classes
Sys
p2296
(dp2297
g19
g135
sg21
I00
sg22
S'ATLAS_JES_Flavb_DOWN'
p2298
sg24
I01
sg25
S'ATLAS_JES_Flavb_UP'
p2299
sg27
I00
sba(iTools.Systematics.sys_classes
Sys
p2300
(dp2301
g19
g140
sg21
I00
sg22
S'ATLAS_JVF_2012_DOWN'
p2302
sg24
I01
sg25
S'ATLAS_JVF_2012_UP'
p2303
sg27
I00
sba(iTools.Systematics.sys_classes
Sys
p2304
(dp2305
g19
g145
sg21
I00
sg22
S'ATLAS_MET_RESOSOFT_DOWN'
p2306
sg24
I01
sg25
S'ATLAS_MET_RESOSOFT_UP'
p2307
sg27
I00
sba(iTools.Systematics.sys_classes
Sys
p2308
(dp2309
g19
g150
sg21
I00
sg22
S'ATLAS_MET_SCALESOFT_DOWN'
p2310
sg24
I01
sg25
S'ATLAS_MET_SCALESOFT_UP'
p2311
sg27
I00
sba(iTools.Systematics.sys_classes
Sys
p2312
(dp2313
g19
g155
sg21
I00
sg22
S'ATLAS_MU_MS_DOWN'
p2314
sg24
I01
sg25
S'ATLAS_MU_MS_UP'
p2315
sg27
I00
sba(iTools.Systematics.sys_classes
Sys
p2316
(dp2317
g19
g160
sg21
I01
sg22
S'ATLAS_MU_EFF_ID_DOWN'
p2318
sg24
I01
sg25
S'ATLAS_MU_EFF_ID_UP'
p2319
sg27
I00
sba(iTools.Systematics.sys_classes
Sys
p2320
(dp2321
g19
g165
sg21
I01
sg22
S'ATLAS_MU_EFF_ISO_DOWN'
p2322
sg24
I01
sg25
S'ATLAS_MU_EFF_ISO_UP'
p2323
sg27
I00
sba(iTools.Systematics.sys_classes
Sys
p2324
(dp2325
g19
g170
sg21
I01
sg22
S'ATLAS_MU_EFF_TRIG_DOWN'
p2326
sg24
I01
sg25
S'ATLAS_MU_EFF_TRIG_UP'
p2327
sg27
I00
sba(iTools.Systematics.sys_classes
Sys
p2328
(dp2329
g19
g175
sg21
I01
sg22
S'ATLAS_PU_RESCALE_2012_DOWN'
p2330
sg24
I01
sg25
S'ATLAS_PU_RESCALE_2012_UP'
p2331
sg27
I00
sba(iTools.Systematics.sys_classes
Sys
p2332
(dp2333
g19
g180
sg21
I01
sg22
S'ATLAS_TAU_EFAKE_2012_DOWN'
p2334
sg24
I01
sg25
S'ATLAS_TAU_EFAKE_2012_UP'
p2335
sg27
I00
sba(iTools.Systematics.sys_classes
Sys
p2336
(dp2337
g19
g185
sg21
I01
sg22
S'ATLAS_TAU_ID_2012_DOWN'
p2338
sg24
I01
sg25
S'ATLAS_TAU_ID_2012_UP'
p2339
sg27
I00
sba(iTools.Systematics.sys_classes
Sys
p2340
(dp2341
g19
g190
sg21
I01
sg22
S'ATLAS_TAU_ID_STAT_2012_DOWN'
p2342
sg24
I01
sg25
S'ATLAS_TAU_ID_STAT_2012_UP'
p2343
sg27
I00
sba(iTools.Systematics.sys_classes
Sys
p2344
(dp2345
g19
g195
sg21
I00
sg22
S'ATLAS_TES_TRUE_2012_DOWN'
p2346
sg24
I01
sg25
S'ATLAS_TES_TRUE_2012_UP'
p2347
sg27
I00
sbasg198
(lp2348
(iTools.Systematics.sys_classes
Sys
p2349
(dp2350
g19
g202
sg21
I00
sg22
F0.93500000000000005
sg24
I01
sg25
F1.0660000000000001
sg27
I00
sba(iTools.Systematics.sys_classes
Sys
p2351
(dp2352
g19
g205
sg21
I00
sg22
F0.97199999999999998
sg24
I01
sg25
F1.028
sg27
I00
sba(iTools.Systematics.sys_classes
Sys
p2353
(dp2354
g19
g2067
sg21
I00
sg22
F0.97299999999999998
sg24
I01
sg25
F1.0269999999999999
sg27
I00
sba(iTools.Systematics.sys_classes
Sys
p2355
(dp2356
g19
g211
sg21
I00
sg22
F0.97899999999999998
sg24
I01
sg25
F1.0209999999999999
sg27
I00
sba(iTools.Systematics.sys_classes
Sys
p2357
(dp2358
g19
g2072
sg21
I00
sg22
F0.97599999999999998
sg24
I01
sg25
F1.024
sg27
I00
sbasg19
S'ZH110'
p2359
sba(iTools.Systematics.sys_classes
Sample
p2360
(dp2361
g15
(lp2362
(iTools.Systematics.sys_classes
Sys
p2363
(dp2364
g19
g40
sg21
I00
sg22
S'ATLAS_EL_SCALE_ZEE_DOWN'
p2365
sg24
I01
sg25
S'ATLAS_EL_SCALE_ZEE_UP'
p2366
sg27
I00
sba(iTools.Systematics.sys_classes
Sys
p2367
(dp2368
g19
g45
sg21
I00
sg22
S'ATLAS_EL_SCALE_R12_DOWN'
p2369
sg24
I01
sg25
S'ATLAS_EL_SCALE_R12_UP'
p2370
sg27
I00
sba(iTools.Systematics.sys_classes
Sys
p2371
(dp2372
g19
g50
sg21
I00
sg22
S'ATLAS_EL_SCALE_PS_DOWN'
p2373
sg24
I01
sg25
S'ATLAS_EL_SCALE_PS_UP'
p2374
sg27
I00
sba(iTools.Systematics.sys_classes
Sys
p2375
(dp2376
g19
g55
sg21
I00
sg22
S'ATLAS_EL_SCALE_LOWPT_DOWN'
p2377
sg24
I01
sg25
S'ATLAS_EL_SCALE_LOWPT_UP'
p2378
sg27
I00
sba(iTools.Systematics.sys_classes
Sys
p2379
(dp2380
g19
g60
sg21
I01
sg22
S'ATLAS_EL_RES_DOWN'
p2381
sg24
I01
sg25
S'ATLAS_EL_RES_UP'
p2382
sg27
I00
sba(iTools.Systematics.sys_classes
Sys
p2383
(dp2384
g19
g65
sg21
I01
sg22
S'ATLAS_EL_EFF_ID_DOWN'
p2385
sg24
I01
sg25
S'ATLAS_EL_EFF_ID_UP'
p2386
sg27
I00
sba(iTools.Systematics.sys_classes
Sys
p2387
(dp2388
g19
g70
sg21
I01
sg22
S'ATLAS_EL_EFF_ISO_DOWN'
p2389
sg24
I01
sg25
S'ATLAS_EL_EFF_ISO_UP'
p2390
sg27
I00
sba(iTools.Systematics.sys_classes
Sys
p2391
(dp2392
g19
g75
sg21
I01
sg22
S'ATLAS_EL_EFF_TRIG_DOWN'
p2393
sg24
I01
sg25
S'ATLAS_EL_EFF_TRIG_UP'
p2394
sg27
I00
sba(iTools.Systematics.sys_classes
Sys
p2395
(dp2396
g19
g80
sg21
I00
sg22
S'ATLAS_JER_2012_DOWN'
p2397
sg24
I01
sg25
S'ATLAS_JER_2012_UP'
p2398
sg27
I00
sba(iTools.Systematics.sys_classes
Sys
p2399
(dp2400
g19
g85
sg21
I00
sg22
S'ATLAS_JES_2012_Statistical1_DOWN'
p2401
sg24
I01
sg25
S'ATLAS_JES_2012_Statistical1_UP'
p2402
sg27
I00
sba(iTools.Systematics.sys_classes
Sys
p2403
(dp2404
g19
g90
sg21
I00
sg22
S'ATLAS_JES_2012_Modelling1_DOWN'
p2405
sg24
I01
sg25
S'ATLAS_JES_2012_Modelling1_UP'
p2406
sg27
I00
sba(iTools.Systematics.sys_classes
Sys
p2407
(dp2408
g19
g95
sg21
I00
sg22
S'ATLAS_JES_2012_Detector1_DOWN'
p2409
sg24
I01
sg25
S'ATLAS_JES_2012_Detector1_UP'
p2410
sg27
I00
sba(iTools.Systematics.sys_classes
Sys
p2411
(dp2412
g19
g100
sg21
I00
sg22
S'ATLAS_JES_2012_EtaModelling_DOWN'
p2413
sg24
I01
sg25
S'ATLAS_JES_2012_EtaModelling_UP'
p2414
sg27
I00
sba(iTools.Systematics.sys_classes
Sys
p2415
(dp2416
g19
g105
sg21
I00
sg22
S'ATLAS_JES_2012_Eta_StatMethod_DOWN'
p2417
sg24
I01
sg25
S'ATLAS_JES_2012_Eta_StatMethod_UP'
p2418
sg27
I00
sba(iTools.Systematics.sys_classes
Sys
p2419
(dp2420
g19
g110
sg21
I00
sg22
S'ATLAS_JES_2012_PileRho_TAU_DOWN'
p2421
sg24
I01
sg25
S'ATLAS_JES_2012_PileRho_TAU_UP'
p2422
sg27
I00
sba(iTools.Systematics.sys_classes
Sys
p2423
(dp2424
g19
g115
sg21
I00
sg22
S'ATLAS_JES_NPV_DOWN'
p2425
sg24
I01
sg25
S'ATLAS_JES_NPV_UP'
p2426
sg27
I00
sba(iTools.Systematics.sys_classes
Sys
p2427
(dp2428
g19
g120
sg21
I00
sg22
S'ATLAS_JES_Mu_DOWN'
p2429
sg24
I01
sg25
S'ATLAS_JES_Mu_UP'
p2430
sg27
I00
sba(iTools.Systematics.sys_classes
Sys
p2431
(dp2432
g19
g125
sg21
I00
sg22
S'ATLAS_JES_FlavComp_TAU_DOWN'
p2433
sg24
I01
sg25
S'ATLAS_JES_FlavComp_TAU_UP'
p2434
sg27
I00
sba(iTools.Systematics.sys_classes
Sys
p2435
(dp2436
g19
g130
sg21
I00
sg22
S'ATLAS_JES_FlavResp_DOWN'
p2437
sg24
I01
sg25
S'ATLAS_JES_FlavResp_UP'
p2438
sg27
I00
sba(iTools.Systematics.sys_classes
Sys
p2439
(dp2440
g19
g135
sg21
I00
sg22
S'ATLAS_JES_Flavb_DOWN'
p2441
sg24
I01
sg25
S'ATLAS_JES_Flavb_UP'
p2442
sg27
I00
sba(iTools.Systematics.sys_classes
Sys
p2443
(dp2444
g19
g140
sg21
I00
sg22
S'ATLAS_JVF_2012_DOWN'
p2445
sg24
I01
sg25
S'ATLAS_JVF_2012_UP'
p2446
sg27
I00
sba(iTools.Systematics.sys_classes
Sys
p2447
(dp2448
g19
g145
sg21
I00
sg22
S'ATLAS_MET_RESOSOFT_DOWN'
p2449
sg24
I01
sg25
S'ATLAS_MET_RESOSOFT_UP'
p2450
sg27
I00
sba(iTools.Systematics.sys_classes
Sys
p2451
(dp2452
g19
g150
sg21
I00
sg22
S'ATLAS_MET_SCALESOFT_DOWN'
p2453
sg24
I01
sg25
S'ATLAS_MET_SCALESOFT_UP'
p2454
sg27
I00
sba(iTools.Systematics.sys_classes
Sys
p2455
(dp2456
g19
g155
sg21
I00
sg22
S'ATLAS_MU_MS_DOWN'
p2457
sg24
I01
sg25
S'ATLAS_MU_MS_UP'
p2458
sg27
I00
sba(iTools.Systematics.sys_classes
Sys
p2459
(dp2460
g19
g160
sg21
I01
sg22
S'ATLAS_MU_EFF_ID_DOWN'
p2461
sg24
I01
sg25
S'ATLAS_MU_EFF_ID_UP'
p2462
sg27
I00
sba(iTools.Systematics.sys_classes
Sys
p2463
(dp2464
g19
g165
sg21
I01
sg22
S'ATLAS_MU_EFF_ISO_DOWN'
p2465
sg24
I01
sg25
S'ATLAS_MU_EFF_ISO_UP'
p2466
sg27
I00
sba(iTools.Systematics.sys_classes
Sys
p2467
(dp2468
g19
g170
sg21
I01
sg22
S'ATLAS_MU_EFF_TRIG_DOWN'
p2469
sg24
I01
sg25
S'ATLAS_MU_EFF_TRIG_UP'
p2470
sg27
I00
sba(iTools.Systematics.sys_classes
Sys
p2471
(dp2472
g19
g175
sg21
I01
sg22
S'ATLAS_PU_RESCALE_2012_DOWN'
p2473
sg24
I01
sg25
S'ATLAS_PU_RESCALE_2012_UP'
p2474
sg27
I00
sba(iTools.Systematics.sys_classes
Sys
p2475
(dp2476
g19
g180
sg21
I01
sg22
S'ATLAS_TAU_EFAKE_2012_DOWN'
p2477
sg24
I01
sg25
S'ATLAS_TAU_EFAKE_2012_UP'
p2478
sg27
I00
sba(iTools.Systematics.sys_classes
Sys
p2479
(dp2480
g19
g185
sg21
I01
sg22
S'ATLAS_TAU_ID_2012_DOWN'
p2481
sg24
I01
sg25
S'ATLAS_TAU_ID_2012_UP'
p2482
sg27
I00
sba(iTools.Systematics.sys_classes
Sys
p2483
(dp2484
g19
g190
sg21
I01
sg22
S'ATLAS_TAU_ID_STAT_2012_DOWN'
p2485
sg24
I01
sg25
S'ATLAS_TAU_ID_STAT_2012_UP'
p2486
sg27
I00
sba(iTools.Systematics.sys_classes
Sys
p2487
(dp2488
g19
g195
sg21
I00
sg22
S'ATLAS_TES_TRUE_2012_DOWN'
p2489
sg24
I01
sg25
S'ATLAS_TES_TRUE_2012_UP'
p2490
sg27
I00
sbasg198
(lp2491
(iTools.Systematics.sys_classes
Sys
p2492
(dp2493
g19
g202
sg21
I00
sg22
F0.93700000000000006
sg24
I01
sg25
F1.0640000000000001
sg27
I00
sba(iTools.Systematics.sys_classes
Sys
p2494
(dp2495
g19
g205
sg21
I00
sg22
F0.97199999999999998
sg24
I01
sg25
F1.028
sg27
I00
sba(iTools.Systematics.sys_classes
Sys
p2496
(dp2497
g19
g2067
sg21
I00
sg22
F0.97199999999999998
sg24
I01
sg25
F1.028
sg27
I00
sba(iTools.Systematics.sys_classes
Sys
p2498
(dp2499
g19
g211
sg21
I00
sg22
F0.97899999999999998
sg24
I01
sg25
F1.0209999999999999
sg27
I00
sba(iTools.Systematics.sys_classes
Sys
p2500
(dp2501
g19
g2072
sg21
I00
sg22
F0.97499999999999998
sg24
I01
sg25
F1.0249999999999999
sg27
I00
sbasg19
S'ZH115'
p2502
sba(iTools.Systematics.sys_classes
Sample
p2503
(dp2504
g15
(lp2505
(iTools.Systematics.sys_classes
Sys
p2506
(dp2507
g19
g40
sg21
I00
sg22
S'ATLAS_EL_SCALE_ZEE_DOWN'
p2508
sg24
I01
sg25
S'ATLAS_EL_SCALE_ZEE_UP'
p2509
sg27
I00
sba(iTools.Systematics.sys_classes
Sys
p2510
(dp2511
g19
g45
sg21
I00
sg22
S'ATLAS_EL_SCALE_R12_DOWN'
p2512
sg24
I01
sg25
S'ATLAS_EL_SCALE_R12_UP'
p2513
sg27
I00
sba(iTools.Systematics.sys_classes
Sys
p2514
(dp2515
g19
g50
sg21
I00
sg22
S'ATLAS_EL_SCALE_PS_DOWN'
p2516
sg24
I01
sg25
S'ATLAS_EL_SCALE_PS_UP'
p2517
sg27
I00
sba(iTools.Systematics.sys_classes
Sys
p2518
(dp2519
g19
g55
sg21
I00
sg22
S'ATLAS_EL_SCALE_LOWPT_DOWN'
p2520
sg24
I01
sg25
S'ATLAS_EL_SCALE_LOWPT_UP'
p2521
sg27
I00
sba(iTools.Systematics.sys_classes
Sys
p2522
(dp2523
g19
g60
sg21
I01
sg22
S'ATLAS_EL_RES_DOWN'
p2524
sg24
I01
sg25
S'ATLAS_EL_RES_UP'
p2525
sg27
I00
sba(iTools.Systematics.sys_classes
Sys
p2526
(dp2527
g19
g65
sg21
I01
sg22
S'ATLAS_EL_EFF_ID_DOWN'
p2528
sg24
I01
sg25
S'ATLAS_EL_EFF_ID_UP'
p2529
sg27
I00
sba(iTools.Systematics.sys_classes
Sys
p2530
(dp2531
g19
g70
sg21
I01
sg22
S'ATLAS_EL_EFF_ISO_DOWN'
p2532
sg24
I01
sg25
S'ATLAS_EL_EFF_ISO_UP'
p2533
sg27
I00
sba(iTools.Systematics.sys_classes
Sys
p2534
(dp2535
g19
g75
sg21
I01
sg22
S'ATLAS_EL_EFF_TRIG_DOWN'
p2536
sg24
I01
sg25
S'ATLAS_EL_EFF_TRIG_UP'
p2537
sg27
I00
sba(iTools.Systematics.sys_classes
Sys
p2538
(dp2539
g19
g80
sg21
I00
sg22
S'ATLAS_JER_2012_DOWN'
p2540
sg24
I01
sg25
S'ATLAS_JER_2012_UP'
p2541
sg27
I00
sba(iTools.Systematics.sys_classes
Sys
p2542
(dp2543
g19
g85
sg21
I00
sg22
S'ATLAS_JES_2012_Statistical1_DOWN'
p2544
sg24
I01
sg25
S'ATLAS_JES_2012_Statistical1_UP'
p2545
sg27
I00
sba(iTools.Systematics.sys_classes
Sys
p2546
(dp2547
g19
g90
sg21
I00
sg22
S'ATLAS_JES_2012_Modelling1_DOWN'
p2548
sg24
I01
sg25
S'ATLAS_JES_2012_Modelling1_UP'
p2549
sg27
I00
sba(iTools.Systematics.sys_classes
Sys
p2550
(dp2551
g19
g95
sg21
I00
sg22
S'ATLAS_JES_2012_Detector1_DOWN'
p2552
sg24
I01
sg25
S'ATLAS_JES_2012_Detector1_UP'
p2553
sg27
I00
sba(iTools.Systematics.sys_classes
Sys
p2554
(dp2555
g19
g100
sg21
I00
sg22
S'ATLAS_JES_2012_EtaModelling_DOWN'
p2556
sg24
I01
sg25
S'ATLAS_JES_2012_EtaModelling_UP'
p2557
sg27
I00
sba(iTools.Systematics.sys_classes
Sys
p2558
(dp2559
g19
g105
sg21
I00
sg22
S'ATLAS_JES_2012_Eta_StatMethod_DOWN'
p2560
sg24
I01
sg25
S'ATLAS_JES_2012_Eta_StatMethod_UP'
p2561
sg27
I00
sba(iTools.Systematics.sys_classes
Sys
p2562
(dp2563
g19
g110
sg21
I00
sg22
S'ATLAS_JES_2012_PileRho_TAU_DOWN'
p2564
sg24
I01
sg25
S'ATLAS_JES_2012_PileRho_TAU_UP'
p2565
sg27
I00
sba(iTools.Systematics.sys_classes
Sys
p2566
(dp2567
g19
g115
sg21
I00
sg22
S'ATLAS_JES_NPV_DOWN'
p2568
sg24
I01
sg25
S'ATLAS_JES_NPV_UP'
p2569
sg27
I00
sba(iTools.Systematics.sys_classes
Sys
p2570
(dp2571
g19
g120
sg21
I00
sg22
S'ATLAS_JES_Mu_DOWN'
p2572
sg24
I01
sg25
S'ATLAS_JES_Mu_UP'
p2573
sg27
I00
sba(iTools.Systematics.sys_classes
Sys
p2574
(dp2575
g19
g125
sg21
I00
sg22
S'ATLAS_JES_FlavComp_TAU_DOWN'
p2576
sg24
I01
sg25
S'ATLAS_JES_FlavComp_TAU_UP'
p2577
sg27
I00
sba(iTools.Systematics.sys_classes
Sys
p2578
(dp2579
g19
g130
sg21
I00
sg22
S'ATLAS_JES_FlavResp_DOWN'
p2580
sg24
I01
sg25
S'ATLAS_JES_FlavResp_UP'
p2581
sg27
I00
sba(iTools.Systematics.sys_classes
Sys
p2582
(dp2583
g19
g135
sg21
I00
sg22
S'ATLAS_JES_Flavb_DOWN'
p2584
sg24
I01
sg25
S'ATLAS_JES_Flavb_UP'
p2585
sg27
I00
sba(iTools.Systematics.sys_classes
Sys
p2586
(dp2587
g19
g140
sg21
I00
sg22
S'ATLAS_JVF_2012_DOWN'
p2588
sg24
I01
sg25
S'ATLAS_JVF_2012_UP'
p2589
sg27
I00
sba(iTools.Systematics.sys_classes
Sys
p2590
(dp2591
g19
g145
sg21
I00
sg22
S'ATLAS_MET_RESOSOFT_DOWN'
p2592
sg24
I01
sg25
S'ATLAS_MET_RESOSOFT_UP'
p2593
sg27
I00
sba(iTools.Systematics.sys_classes
Sys
p2594
(dp2595
g19
g150
sg21
I00
sg22
S'ATLAS_MET_SCALESOFT_DOWN'
p2596
sg24
I01
sg25
S'ATLAS_MET_SCALESOFT_UP'
p2597
sg27
I00
sba(iTools.Systematics.sys_classes
Sys
p2598
(dp2599
g19
g155
sg21
I00
sg22
S'ATLAS_MU_MS_DOWN'
p2600
sg24
I01
sg25
S'ATLAS_MU_MS_UP'
p2601
sg27
I00
sba(iTools.Systematics.sys_classes
Sys
p2602
(dp2603
g19
g160
sg21
I01
sg22
S'ATLAS_MU_EFF_ID_DOWN'
p2604
sg24
I01
sg25
S'ATLAS_MU_EFF_ID_UP'
p2605
sg27
I00
sba(iTools.Systematics.sys_classes
Sys
p2606
(dp2607
g19
g165
sg21
I01
sg22
S'ATLAS_MU_EFF_ISO_DOWN'
p2608
sg24
I01
sg25
S'ATLAS_MU_EFF_ISO_UP'
p2609
sg27
I00
sba(iTools.Systematics.sys_classes
Sys
p2610
(dp2611
g19
g170
sg21
I01
sg22
S'ATLAS_MU_EFF_TRIG_DOWN'
p2612
sg24
I01
sg25
S'ATLAS_MU_EFF_TRIG_UP'
p2613
sg27
I00
sba(iTools.Systematics.sys_classes
Sys
p2614
(dp2615
g19
g175
sg21
I01
sg22
S'ATLAS_PU_RESCALE_2012_DOWN'
p2616
sg24
I01
sg25
S'ATLAS_PU_RESCALE_2012_UP'
p2617
sg27
I00
sba(iTools.Systematics.sys_classes
Sys
p2618
(dp2619
g19
g180
sg21
I01
sg22
S'ATLAS_TAU_EFAKE_2012_DOWN'
p2620
sg24
I01
sg25
S'ATLAS_TAU_EFAKE_2012_UP'
p2621
sg27
I00
sba(iTools.Systematics.sys_classes
Sys
p2622
(dp2623
g19
g185
sg21
I01
sg22
S'ATLAS_TAU_ID_2012_DOWN'
p2624
sg24
I01
sg25
S'ATLAS_TAU_ID_2012_UP'
p2625
sg27
I00
sba(iTools.Systematics.sys_classes
Sys
p2626
(dp2627
g19
g190
sg21
I01
sg22
S'ATLAS_TAU_ID_STAT_2012_DOWN'
p2628
sg24
I01
sg25
S'ATLAS_TAU_ID_STAT_2012_UP'
p2629
sg27
I00
sba(iTools.Systematics.sys_classes
Sys
p2630
(dp2631
g19
g195
sg21
I00
sg22
S'ATLAS_TES_TRUE_2012_DOWN'
p2632
sg24
I01
sg25
S'ATLAS_TES_TRUE_2012_UP'
p2633
sg27
I00
sbasg198
(lp2634
(iTools.Systematics.sys_classes
Sys
p2635
(dp2636
g19
g202
sg21
I00
sg22
F0.93999999999999995
sg24
I01
sg25
F1.0609999999999999
sg27
I00
sba(iTools.Systematics.sys_classes
Sys
p2637
(dp2638
g19
g205
sg21
I00
sg22
F0.97199999999999998
sg24
I01
sg25
F1.028
sg27
I00
sba(iTools.Systematics.sys_classes
Sys
p2639
(dp2640
g19
g2067
sg21
I00
sg22
F0.96999999999999997
sg24
I01
sg25
F1.03
sg27
I00
sba(iTools.Systematics.sys_classes
Sys
p2641
(dp2642
g19
g211
sg21
I00
sg22
F0.97899999999999998
sg24
I01
sg25
F1.0209999999999999
sg27
I00
sba(iTools.Systematics.sys_classes
Sys
p2643
(dp2644
g19
g2072
sg21
I00
sg22
F0.97499999999999998
sg24
I01
sg25
F1.0249999999999999
sg27
I00
sbasg19
S'ZH120'
p2645
sba(iTools.Systematics.sys_classes
Sample
p2646
(dp2647
g15
(lp2648
(iTools.Systematics.sys_classes
Sys
p2649
(dp2650
g19
g40
sg21
I00
sg22
S'ATLAS_EL_SCALE_ZEE_DOWN'
p2651
sg24
I01
sg25
S'ATLAS_EL_SCALE_ZEE_UP'
p2652
sg27
I00
sba(iTools.Systematics.sys_classes
Sys
p2653
(dp2654
g19
g45
sg21
I00
sg22
S'ATLAS_EL_SCALE_R12_DOWN'
p2655
sg24
I01
sg25
S'ATLAS_EL_SCALE_R12_UP'
p2656
sg27
I00
sba(iTools.Systematics.sys_classes
Sys
p2657
(dp2658
g19
g50
sg21
I00
sg22
S'ATLAS_EL_SCALE_PS_DOWN'
p2659
sg24
I01
sg25
S'ATLAS_EL_SCALE_PS_UP'
p2660
sg27
I00
sba(iTools.Systematics.sys_classes
Sys
p2661
(dp2662
g19
g55
sg21
I00
sg22
S'ATLAS_EL_SCALE_LOWPT_DOWN'
p2663
sg24
I01
sg25
S'ATLAS_EL_SCALE_LOWPT_UP'
p2664
sg27
I00
sba(iTools.Systematics.sys_classes
Sys
p2665
(dp2666
g19
g60
sg21
I01
sg22
S'ATLAS_EL_RES_DOWN'
p2667
sg24
I01
sg25
S'ATLAS_EL_RES_UP'
p2668
sg27
I00
sba(iTools.Systematics.sys_classes
Sys
p2669
(dp2670
g19
g65
sg21
I01
sg22
S'ATLAS_EL_EFF_ID_DOWN'
p2671
sg24
I01
sg25
S'ATLAS_EL_EFF_ID_UP'
p2672
sg27
I00
sba(iTools.Systematics.sys_classes
Sys
p2673
(dp2674
g19
g70
sg21
I01
sg22
S'ATLAS_EL_EFF_ISO_DOWN'
p2675
sg24
I01
sg25
S'ATLAS_EL_EFF_ISO_UP'
p2676
sg27
I00
sba(iTools.Systematics.sys_classes
Sys
p2677
(dp2678
g19
g75
sg21
I01
sg22
S'ATLAS_EL_EFF_TRIG_DOWN'
p2679
sg24
I01
sg25
S'ATLAS_EL_EFF_TRIG_UP'
p2680
sg27
I00
sba(iTools.Systematics.sys_classes
Sys
p2681
(dp2682
g19
g80
sg21
I00
sg22
S'ATLAS_JER_2012_DOWN'
p2683
sg24
I01
sg25
S'ATLAS_JER_2012_UP'
p2684
sg27
I00
sba(iTools.Systematics.sys_classes
Sys
p2685
(dp2686
g19
g85
sg21
I00
sg22
S'ATLAS_JES_2012_Statistical1_DOWN'
p2687
sg24
I01
sg25
S'ATLAS_JES_2012_Statistical1_UP'
p2688
sg27
I00
sba(iTools.Systematics.sys_classes
Sys
p2689
(dp2690
g19
g90
sg21
I00
sg22
S'ATLAS_JES_2012_Modelling1_DOWN'
p2691
sg24
I01
sg25
S'ATLAS_JES_2012_Modelling1_UP'
p2692
sg27
I00
sba(iTools.Systematics.sys_classes
Sys
p2693
(dp2694
g19
g95
sg21
I00
sg22
S'ATLAS_JES_2012_Detector1_DOWN'
p2695
sg24
I01
sg25
S'ATLAS_JES_2012_Detector1_UP'
p2696
sg27
I00
sba(iTools.Systematics.sys_classes
Sys
p2697
(dp2698
g19
g100
sg21
I00
sg22
S'ATLAS_JES_2012_EtaModelling_DOWN'
p2699
sg24
I01
sg25
S'ATLAS_JES_2012_EtaModelling_UP'
p2700
sg27
I00
sba(iTools.Systematics.sys_classes
Sys
p2701
(dp2702
g19
g105
sg21
I00
sg22
S'ATLAS_JES_2012_Eta_StatMethod_DOWN'
p2703
sg24
I01
sg25
S'ATLAS_JES_2012_Eta_StatMethod_UP'
p2704
sg27
I00
sba(iTools.Systematics.sys_classes
Sys
p2705
(dp2706
g19
g110
sg21
I00
sg22
S'ATLAS_JES_2012_PileRho_TAU_DOWN'
p2707
sg24
I01
sg25
S'ATLAS_JES_2012_PileRho_TAU_UP'
p2708
sg27
I00
sba(iTools.Systematics.sys_classes
Sys
p2709
(dp2710
g19
g115
sg21
I00
sg22
S'ATLAS_JES_NPV_DOWN'
p2711
sg24
I01
sg25
S'ATLAS_JES_NPV_UP'
p2712
sg27
I00
sba(iTools.Systematics.sys_classes
Sys
p2713
(dp2714
g19
g120
sg21
I00
sg22
S'ATLAS_JES_Mu_DOWN'
p2715
sg24
I01
sg25
S'ATLAS_JES_Mu_UP'
p2716
sg27
I00
sba(iTools.Systematics.sys_classes
Sys
p2717
(dp2718
g19
g125
sg21
I00
sg22
S'ATLAS_JES_FlavComp_TAU_DOWN'
p2719
sg24
I01
sg25
S'ATLAS_JES_FlavComp_TAU_UP'
p2720
sg27
I00
sba(iTools.Systematics.sys_classes
Sys
p2721
(dp2722
g19
g130
sg21
I00
sg22
S'ATLAS_JES_FlavResp_DOWN'
p2723
sg24
I01
sg25
S'ATLAS_JES_FlavResp_UP'
p2724
sg27
I00
sba(iTools.Systematics.sys_classes
Sys
p2725
(dp2726
g19
g135
sg21
I00
sg22
S'ATLAS_JES_Flavb_DOWN'
p2727
sg24
I01
sg25
S'ATLAS_JES_Flavb_UP'
p2728
sg27
I00
sba(iTools.Systematics.sys_classes
Sys
p2729
(dp2730
g19
g140
sg21
I00
sg22
S'ATLAS_JVF_2012_DOWN'
p2731
sg24
I01
sg25
S'ATLAS_JVF_2012_UP'
p2732
sg27
I00
sba(iTools.Systematics.sys_classes
Sys
p2733
(dp2734
g19
g145
sg21
I00
sg22
S'ATLAS_MET_RESOSOFT_DOWN'
p2735
sg24
I01
sg25
S'ATLAS_MET_RESOSOFT_UP'
p2736
sg27
I00
sba(iTools.Systematics.sys_classes
Sys
p2737
(dp2738
g19
g150
sg21
I00
sg22
S'ATLAS_MET_SCALESOFT_DOWN'
p2739
sg24
I01
sg25
S'ATLAS_MET_SCALESOFT_UP'
p2740
sg27
I00
sba(iTools.Systematics.sys_classes
Sys
p2741
(dp2742
g19
g155
sg21
I00
sg22
S'ATLAS_MU_MS_DOWN'
p2743
sg24
I01
sg25
S'ATLAS_MU_MS_UP'
p2744
sg27
I00
sba(iTools.Systematics.sys_classes
Sys
p2745
(dp2746
g19
g160
sg21
I01
sg22
S'ATLAS_MU_EFF_ID_DOWN'
p2747
sg24
I01
sg25
S'ATLAS_MU_EFF_ID_UP'
p2748
sg27
I00
sba(iTools.Systematics.sys_classes
Sys
p2749
(dp2750
g19
g165
sg21
I01
sg22
S'ATLAS_MU_EFF_ISO_DOWN'
p2751
sg24
I01
sg25
S'ATLAS_MU_EFF_ISO_UP'
p2752
sg27
I00
sba(iTools.Systematics.sys_classes
Sys
p2753
(dp2754
g19
g170
sg21
I01
sg22
S'ATLAS_MU_EFF_TRIG_DOWN'
p2755
sg24
I01
sg25
S'ATLAS_MU_EFF_TRIG_UP'
p2756
sg27
I00
sba(iTools.Systematics.sys_classes
Sys
p2757
(dp2758
g19
g175
sg21
I01
sg22
S'ATLAS_PU_RESCALE_2012_DOWN'
p2759
sg24
I01
sg25
S'ATLAS_PU_RESCALE_2012_UP'
p2760
sg27
I00
sba(iTools.Systematics.sys_classes
Sys
p2761
(dp2762
g19
g180
sg21
I01
sg22
S'ATLAS_TAU_EFAKE_2012_DOWN'
p2763
sg24
I01
sg25
S'ATLAS_TAU_EFAKE_2012_UP'
p2764
sg27
I00
sba(iTools.Systematics.sys_classes
Sys
p2765
(dp2766
g19
g185
sg21
I01
sg22
S'ATLAS_TAU_ID_2012_DOWN'
p2767
sg24
I01
sg25
S'ATLAS_TAU_ID_2012_UP'
p2768
sg27
I00
sba(iTools.Systematics.sys_classes
Sys
p2769
(dp2770
g19
g190
sg21
I01
sg22
S'ATLAS_TAU_ID_STAT_2012_DOWN'
p2771
sg24
I01
sg25
S'ATLAS_TAU_ID_STAT_2012_UP'
p2772
sg27
I00
sba(iTools.Systematics.sys_classes
Sys
p2773
(dp2774
g19
g195
sg21
I00
sg22
S'ATLAS_TES_TRUE_2012_DOWN'
p2775
sg24
I01
sg25
S'ATLAS_TES_TRUE_2012_UP'
p2776
sg27
I00
sbasg198
(lp2777
(iTools.Systematics.sys_classes
Sys
p2778
(dp2779
g19
g202
sg21
I00
sg22
F0.94299999999999995
sg24
I01
sg25
F1.0569999999999999
sg27
I00
sba(iTools.Systematics.sys_classes
Sys
p2780
(dp2781
g19
g205
sg21
I00
sg22
F0.97199999999999998
sg24
I01
sg25
F1.028
sg27
I00
sba(iTools.Systematics.sys_classes
Sys
p2782
(dp2783
g19
g2067
sg21
I00
sg22
F0.96899999999999997
sg24
I01
sg25
F1.0309999999999999
sg27
I00
sba(iTools.Systematics.sys_classes
Sys
p2784
(dp2785
g19
g211
sg21
I00
sg22
F0.97899999999999998
sg24
I01
sg25
F1.0209999999999999
sg27
I00
sba(iTools.Systematics.sys_classes
Sys
p2786
(dp2787
g19
g2072
sg21
I00
sg22
F0.97499999999999998
sg24
I01
sg25
F1.0249999999999999
sg27
I00
sbasg19
S'ZH125'
p2788
sba(iTools.Systematics.sys_classes
Sample
p2789
(dp2790
g15
(lp2791
(iTools.Systematics.sys_classes
Sys
p2792
(dp2793
g19
g40
sg21
I00
sg22
S'ATLAS_EL_SCALE_ZEE_DOWN'
p2794
sg24
I01
sg25
S'ATLAS_EL_SCALE_ZEE_UP'
p2795
sg27
I00
sba(iTools.Systematics.sys_classes
Sys
p2796
(dp2797
g19
g45
sg21
I00
sg22
S'ATLAS_EL_SCALE_R12_DOWN'
p2798
sg24
I01
sg25
S'ATLAS_EL_SCALE_R12_UP'
p2799
sg27
I00
sba(iTools.Systematics.sys_classes
Sys
p2800
(dp2801
g19
g50
sg21
I00
sg22
S'ATLAS_EL_SCALE_PS_DOWN'
p2802
sg24
I01
sg25
S'ATLAS_EL_SCALE_PS_UP'
p2803
sg27
I00
sba(iTools.Systematics.sys_classes
Sys
p2804
(dp2805
g19
g55
sg21
I00
sg22
S'ATLAS_EL_SCALE_LOWPT_DOWN'
p2806
sg24
I01
sg25
S'ATLAS_EL_SCALE_LOWPT_UP'
p2807
sg27
I00
sba(iTools.Systematics.sys_classes
Sys
p2808
(dp2809
g19
g60
sg21
I01
sg22
S'ATLAS_EL_RES_DOWN'
p2810
sg24
I01
sg25
S'ATLAS_EL_RES_UP'
p2811
sg27
I00
sba(iTools.Systematics.sys_classes
Sys
p2812
(dp2813
g19
g65
sg21
I01
sg22
S'ATLAS_EL_EFF_ID_DOWN'
p2814
sg24
I01
sg25
S'ATLAS_EL_EFF_ID_UP'
p2815
sg27
I00
sba(iTools.Systematics.sys_classes
Sys
p2816
(dp2817
g19
g70
sg21
I01
sg22
S'ATLAS_EL_EFF_ISO_DOWN'
p2818
sg24
I01
sg25
S'ATLAS_EL_EFF_ISO_UP'
p2819
sg27
I00
sba(iTools.Systematics.sys_classes
Sys
p2820
(dp2821
g19
g75
sg21
I01
sg22
S'ATLAS_EL_EFF_TRIG_DOWN'
p2822
sg24
I01
sg25
S'ATLAS_EL_EFF_TRIG_UP'
p2823
sg27
I00
sba(iTools.Systematics.sys_classes
Sys
p2824
(dp2825
g19
g80
sg21
I00
sg22
S'ATLAS_JER_2012_DOWN'
p2826
sg24
I01
sg25
S'ATLAS_JER_2012_UP'
p2827
sg27
I00
sba(iTools.Systematics.sys_classes
Sys
p2828
(dp2829
g19
g85
sg21
I00
sg22
S'ATLAS_JES_2012_Statistical1_DOWN'
p2830
sg24
I01
sg25
S'ATLAS_JES_2012_Statistical1_UP'
p2831
sg27
I00
sba(iTools.Systematics.sys_classes
Sys
p2832
(dp2833
g19
g90
sg21
I00
sg22
S'ATLAS_JES_2012_Modelling1_DOWN'
p2834
sg24
I01
sg25
S'ATLAS_JES_2012_Modelling1_UP'
p2835
sg27
I00
sba(iTools.Systematics.sys_classes
Sys
p2836
(dp2837
g19
g95
sg21
I00
sg22
S'ATLAS_JES_2012_Detector1_DOWN'
p2838
sg24
I01
sg25
S'ATLAS_JES_2012_Detector1_UP'
p2839
sg27
I00
sba(iTools.Systematics.sys_classes
Sys
p2840
(dp2841
g19
g100
sg21
I00
sg22
S'ATLAS_JES_2012_EtaModelling_DOWN'
p2842
sg24
I01
sg25
S'ATLAS_JES_2012_EtaModelling_UP'
p2843
sg27
I00
sba(iTools.Systematics.sys_classes
Sys
p2844
(dp2845
g19
g105
sg21
I00
sg22
S'ATLAS_JES_2012_Eta_StatMethod_DOWN'
p2846
sg24
I01
sg25
S'ATLAS_JES_2012_Eta_StatMethod_UP'
p2847
sg27
I00
sba(iTools.Systematics.sys_classes
Sys
p2848
(dp2849
g19
g110
sg21
I00
sg22
S'ATLAS_JES_2012_PileRho_TAU_DOWN'
p2850
sg24
I01
sg25
S'ATLAS_JES_2012_PileRho_TAU_UP'
p2851
sg27
I00
sba(iTools.Systematics.sys_classes
Sys
p2852
(dp2853
g19
g115
sg21
I00
sg22
S'ATLAS_JES_NPV_DOWN'
p2854
sg24
I01
sg25
S'ATLAS_JES_NPV_UP'
p2855
sg27
I00
sba(iTools.Systematics.sys_classes
Sys
p2856
(dp2857
g19
g120
sg21
I00
sg22
S'ATLAS_JES_Mu_DOWN'
p2858
sg24
I01
sg25
S'ATLAS_JES_Mu_UP'
p2859
sg27
I00
sba(iTools.Systematics.sys_classes
Sys
p2860
(dp2861
g19
g125
sg21
I00
sg22
S'ATLAS_JES_FlavComp_TAU_DOWN'
p2862
sg24
I01
sg25
S'ATLAS_JES_FlavComp_TAU_UP'
p2863
sg27
I00
sba(iTools.Systematics.sys_classes
Sys
p2864
(dp2865
g19
g130
sg21
I00
sg22
S'ATLAS_JES_FlavResp_DOWN'
p2866
sg24
I01
sg25
S'ATLAS_JES_FlavResp_UP'
p2867
sg27
I00
sba(iTools.Systematics.sys_classes
Sys
p2868
(dp2869
g19
g135
sg21
I00
sg22
S'ATLAS_JES_Flavb_DOWN'
p2870
sg24
I01
sg25
S'ATLAS_JES_Flavb_UP'
p2871
sg27
I00
sba(iTools.Systematics.sys_classes
Sys
p2872
(dp2873
g19
g140
sg21
I00
sg22
S'ATLAS_JVF_2012_DOWN'
p2874
sg24
I01
sg25
S'ATLAS_JVF_2012_UP'
p2875
sg27
I00
sba(iTools.Systematics.sys_classes
Sys
p2876
(dp2877
g19
g145
sg21
I00
sg22
S'ATLAS_MET_RESOSOFT_DOWN'
p2878
sg24
I01
sg25
S'ATLAS_MET_RESOSOFT_UP'
p2879
sg27
I00
sba(iTools.Systematics.sys_classes
Sys
p2880
(dp2881
g19
g150
sg21
I00
sg22
S'ATLAS_MET_SCALESOFT_DOWN'
p2882
sg24
I01
sg25
S'ATLAS_MET_SCALESOFT_UP'
p2883
sg27
I00
sba(iTools.Systematics.sys_classes
Sys
p2884
(dp2885
g19
g155
sg21
I00
sg22
S'ATLAS_MU_MS_DOWN'
p2886
sg24
I01
sg25
S'ATLAS_MU_MS_UP'
p2887
sg27
I00
sba(iTools.Systematics.sys_classes
Sys
p2888
(dp2889
g19
g160
sg21
I01
sg22
S'ATLAS_MU_EFF_ID_DOWN'
p2890
sg24
I01
sg25
S'ATLAS_MU_EFF_ID_UP'
p2891
sg27
I00
sba(iTools.Systematics.sys_classes
Sys
p2892
(dp2893
g19
g165
sg21
I01
sg22
S'ATLAS_MU_EFF_ISO_DOWN'
p2894
sg24
I01
sg25
S'ATLAS_MU_EFF_ISO_UP'
p2895
sg27
I00
sba(iTools.Systematics.sys_classes
Sys
p2896
(dp2897
g19
g170
sg21
I01
sg22
S'ATLAS_MU_EFF_TRIG_DOWN'
p2898
sg24
I01
sg25
S'ATLAS_MU_EFF_TRIG_UP'
p2899
sg27
I00
sba(iTools.Systematics.sys_classes
Sys
p2900
(dp2901
g19
g175
sg21
I01
sg22
S'ATLAS_PU_RESCALE_2012_DOWN'
p2902
sg24
I01
sg25
S'ATLAS_PU_RESCALE_2012_UP'
p2903
sg27
I00
sba(iTools.Systematics.sys_classes
Sys
p2904
(dp2905
g19
g180
sg21
I01
sg22
S'ATLAS_TAU_EFAKE_2012_DOWN'
p2906
sg24
I01
sg25
S'ATLAS_TAU_EFAKE_2012_UP'
p2907
sg27
I00
sba(iTools.Systematics.sys_classes
Sys
p2908
(dp2909
g19
g185
sg21
I01
sg22
S'ATLAS_TAU_ID_2012_DOWN'
p2910
sg24
I01
sg25
S'ATLAS_TAU_ID_2012_UP'
p2911
sg27
I00
sba(iTools.Systematics.sys_classes
Sys
p2912
(dp2913
g19
g190
sg21
I01
sg22
S'ATLAS_TAU_ID_STAT_2012_DOWN'
p2914
sg24
I01
sg25
S'ATLAS_TAU_ID_STAT_2012_UP'
p2915
sg27
I00
sba(iTools.Systematics.sys_classes
Sys
p2916
(dp2917
g19
g195
sg21
I00
sg22
S'ATLAS_TES_TRUE_2012_DOWN'
p2918
sg24
I01
sg25
S'ATLAS_TES_TRUE_2012_UP'
p2919
sg27
I00
sbasg198
(lp2920
(iTools.Systematics.sys_classes
Sys
p2921
(dp2922
g19
g202
sg21
I00
sg22
F0.94799999999999995
sg24
I01
sg25
F1.0529999999999999
sg27
I00
sba(iTools.Systematics.sys_classes
Sys
p2923
(dp2924
g19
g205
sg21
I00
sg22
F0.97199999999999998
sg24
I01
sg25
F1.028
sg27
I00
sba(iTools.Systematics.sys_classes
Sys
p2925
(dp2926
g19
g2067
sg21
I00
sg22
F0.96699999999999997
sg24
I01
sg25
F1.0329999999999999
sg27
I00
sba(iTools.Systematics.sys_classes
Sys
p2927
(dp2928
g19
g211
sg21
I00
sg22
F0.97899999999999998
sg24
I01
sg25
F1.0209999999999999
sg27
I00
sba(iTools.Systematics.sys_classes
Sys
p2929
(dp2930
g19
g2072
sg21
I00
sg22
F0.97599999999999998
sg24
I01
sg25
F1.024
sg27
I00
sbasg19
S'ZH130'
p2931
sba(iTools.Systematics.sys_classes
Sample
p2932
(dp2933
g15
(lp2934
(iTools.Systematics.sys_classes
Sys
p2935
(dp2936
g19
g40
sg21
I00
sg22
S'ATLAS_EL_SCALE_ZEE_DOWN'
p2937
sg24
I01
sg25
S'ATLAS_EL_SCALE_ZEE_UP'
p2938
sg27
I00
sba(iTools.Systematics.sys_classes
Sys
p2939
(dp2940
g19
g45
sg21
I00
sg22
S'ATLAS_EL_SCALE_R12_DOWN'
p2941
sg24
I01
sg25
S'ATLAS_EL_SCALE_R12_UP'
p2942
sg27
I00
sba(iTools.Systematics.sys_classes
Sys
p2943
(dp2944
g19
g50
sg21
I00
sg22
S'ATLAS_EL_SCALE_PS_DOWN'
p2945
sg24
I01
sg25
S'ATLAS_EL_SCALE_PS_UP'
p2946
sg27
I00
sba(iTools.Systematics.sys_classes
Sys
p2947
(dp2948
g19
g55
sg21
I00
sg22
S'ATLAS_EL_SCALE_LOWPT_DOWN'
p2949
sg24
I01
sg25
S'ATLAS_EL_SCALE_LOWPT_UP'
p2950
sg27
I00
sba(iTools.Systematics.sys_classes
Sys
p2951
(dp2952
g19
g60
sg21
I01
sg22
S'ATLAS_EL_RES_DOWN'
p2953
sg24
I01
sg25
S'ATLAS_EL_RES_UP'
p2954
sg27
I00
sba(iTools.Systematics.sys_classes
Sys
p2955
(dp2956
g19
g65
sg21
I01
sg22
S'ATLAS_EL_EFF_ID_DOWN'
p2957
sg24
I01
sg25
S'ATLAS_EL_EFF_ID_UP'
p2958
sg27
I00
sba(iTools.Systematics.sys_classes
Sys
p2959
(dp2960
g19
g70
sg21
I01
sg22
S'ATLAS_EL_EFF_ISO_DOWN'
p2961
sg24
I01
sg25
S'ATLAS_EL_EFF_ISO_UP'
p2962
sg27
I00
sba(iTools.Systematics.sys_classes
Sys
p2963
(dp2964
g19
g75
sg21
I01
sg22
S'ATLAS_EL_EFF_TRIG_DOWN'
p2965
sg24
I01
sg25
S'ATLAS_EL_EFF_TRIG_UP'
p2966
sg27
I00
sba(iTools.Systematics.sys_classes
Sys
p2967
(dp2968
g19
g80
sg21
I00
sg22
S'ATLAS_JER_2012_DOWN'
p2969
sg24
I01
sg25
S'ATLAS_JER_2012_UP'
p2970
sg27
I00
sba(iTools.Systematics.sys_classes
Sys
p2971
(dp2972
g19
g85
sg21
I00
sg22
S'ATLAS_JES_2012_Statistical1_DOWN'
p2973
sg24
I01
sg25
S'ATLAS_JES_2012_Statistical1_UP'
p2974
sg27
I00
sba(iTools.Systematics.sys_classes
Sys
p2975
(dp2976
g19
g90
sg21
I00
sg22
S'ATLAS_JES_2012_Modelling1_DOWN'
p2977
sg24
I01
sg25
S'ATLAS_JES_2012_Modelling1_UP'
p2978
sg27
I00
sba(iTools.Systematics.sys_classes
Sys
p2979
(dp2980
g19
g95
sg21
I00
sg22
S'ATLAS_JES_2012_Detector1_DOWN'
p2981
sg24
I01
sg25
S'ATLAS_JES_2012_Detector1_UP'
p2982
sg27
I00
sba(iTools.Systematics.sys_classes
Sys
p2983
(dp2984
g19
g100
sg21
I00
sg22
S'ATLAS_JES_2012_EtaModelling_DOWN'
p2985
sg24
I01
sg25
S'ATLAS_JES_2012_EtaModelling_UP'
p2986
sg27
I00
sba(iTools.Systematics.sys_classes
Sys
p2987
(dp2988
g19
g105
sg21
I00
sg22
S'ATLAS_JES_2012_Eta_StatMethod_DOWN'
p2989
sg24
I01
sg25
S'ATLAS_JES_2012_Eta_StatMethod_UP'
p2990
sg27
I00
sba(iTools.Systematics.sys_classes
Sys
p2991
(dp2992
g19
g110
sg21
I00
sg22
S'ATLAS_JES_2012_PileRho_TAU_DOWN'
p2993
sg24
I01
sg25
S'ATLAS_JES_2012_PileRho_TAU_UP'
p2994
sg27
I00
sba(iTools.Systematics.sys_classes
Sys
p2995
(dp2996
g19
g115
sg21
I00
sg22
S'ATLAS_JES_NPV_DOWN'
p2997
sg24
I01
sg25
S'ATLAS_JES_NPV_UP'
p2998
sg27
I00
sba(iTools.Systematics.sys_classes
Sys
p2999
(dp3000
g19
g120
sg21
I00
sg22
S'ATLAS_JES_Mu_DOWN'
p3001
sg24
I01
sg25
S'ATLAS_JES_Mu_UP'
p3002
sg27
I00
sba(iTools.Systematics.sys_classes
Sys
p3003
(dp3004
g19
g125
sg21
I00
sg22
S'ATLAS_JES_FlavComp_TAU_DOWN'
p3005
sg24
I01
sg25
S'ATLAS_JES_FlavComp_TAU_UP'
p3006
sg27
I00
sba(iTools.Systematics.sys_classes
Sys
p3007
(dp3008
g19
g130
sg21
I00
sg22
S'ATLAS_JES_FlavResp_DOWN'
p3009
sg24
I01
sg25
S'ATLAS_JES_FlavResp_UP'
p3010
sg27
I00
sba(iTools.Systematics.sys_classes
Sys
p3011
(dp3012
g19
g135
sg21
I00
sg22
S'ATLAS_JES_Flavb_DOWN'
p3013
sg24
I01
sg25
S'ATLAS_JES_Flavb_UP'
p3014
sg27
I00
sba(iTools.Systematics.sys_classes
Sys
p3015
(dp3016
g19
g140
sg21
I00
sg22
S'ATLAS_JVF_2012_DOWN'
p3017
sg24
I01
sg25
S'ATLAS_JVF_2012_UP'
p3018
sg27
I00
sba(iTools.Systematics.sys_classes
Sys
p3019
(dp3020
g19
g145
sg21
I00
sg22
S'ATLAS_MET_RESOSOFT_DOWN'
p3021
sg24
I01
sg25
S'ATLAS_MET_RESOSOFT_UP'
p3022
sg27
I00
sba(iTools.Systematics.sys_classes
Sys
p3023
(dp3024
g19
g150
sg21
I00
sg22
S'ATLAS_MET_SCALESOFT_DOWN'
p3025
sg24
I01
sg25
S'ATLAS_MET_SCALESOFT_UP'
p3026
sg27
I00
sba(iTools.Systematics.sys_classes
Sys
p3027
(dp3028
g19
g155
sg21
I00
sg22
S'ATLAS_MU_MS_DOWN'
p3029
sg24
I01
sg25
S'ATLAS_MU_MS_UP'
p3030
sg27
I00
sba(iTools.Systematics.sys_classes
Sys
p3031
(dp3032
g19
g160
sg21
I01
sg22
S'ATLAS_MU_EFF_ID_DOWN'
p3033
sg24
I01
sg25
S'ATLAS_MU_EFF_ID_UP'
p3034
sg27
I00
sba(iTools.Systematics.sys_classes
Sys
p3035
(dp3036
g19
g165
sg21
I01
sg22
S'ATLAS_MU_EFF_ISO_DOWN'
p3037
sg24
I01
sg25
S'ATLAS_MU_EFF_ISO_UP'
p3038
sg27
I00
sba(iTools.Systematics.sys_classes
Sys
p3039
(dp3040
g19
g170
sg21
I01
sg22
S'ATLAS_MU_EFF_TRIG_DOWN'
p3041
sg24
I01
sg25
S'ATLAS_MU_EFF_TRIG_UP'
p3042
sg27
I00
sba(iTools.Systematics.sys_classes
Sys
p3043
(dp3044
g19
g175
sg21
I01
sg22
S'ATLAS_PU_RESCALE_2012_DOWN'
p3045
sg24
I01
sg25
S'ATLAS_PU_RESCALE_2012_UP'
p3046
sg27
I00
sba(iTools.Systematics.sys_classes
Sys
p3047
(dp3048
g19
g180
sg21
I01
sg22
S'ATLAS_TAU_EFAKE_2012_DOWN'
p3049
sg24
I01
sg25
S'ATLAS_TAU_EFAKE_2012_UP'
p3050
sg27
I00
sba(iTools.Systematics.sys_classes
Sys
p3051
(dp3052
g19
g185
sg21
I01
sg22
S'ATLAS_TAU_ID_2012_DOWN'
p3053
sg24
I01
sg25
S'ATLAS_TAU_ID_2012_UP'
p3054
sg27
I00
sba(iTools.Systematics.sys_classes
Sys
p3055
(dp3056
g19
g190
sg21
I01
sg22
S'ATLAS_TAU_ID_STAT_2012_DOWN'
p3057
sg24
I01
sg25
S'ATLAS_TAU_ID_STAT_2012_UP'
p3058
sg27
I00
sba(iTools.Systematics.sys_classes
Sys
p3059
(dp3060
g19
g195
sg21
I00
sg22
S'ATLAS_TES_TRUE_2012_DOWN'
p3061
sg24
I01
sg25
S'ATLAS_TES_TRUE_2012_UP'
p3062
sg27
I00
sbasg198
(lp3063
(iTools.Systematics.sys_classes
Sys
p3064
(dp3065
g19
g202
sg21
I00
sg22
F0.95199999999999996
sg24
I01
sg25
F1.048
sg27
I00
sba(iTools.Systematics.sys_classes
Sys
p3066
(dp3067
g19
g205
sg21
I00
sg22
F0.97199999999999998
sg24
I01
sg25
F1.028
sg27
I00
sba(iTools.Systematics.sys_classes
Sys
p3068
(dp3069
g19
g2067
sg21
I00
sg22
F0.96499999999999997
sg24
I01
sg25
F1.0349999999999999
sg27
I00
sba(iTools.Systematics.sys_classes
Sys
p3070
(dp3071
g19
g211
sg21
I00
sg22
F0.97899999999999998
sg24
I01
sg25
F1.0209999999999999
sg27
I00
sba(iTools.Systematics.sys_classes
Sys
p3072
(dp3073
g19
g2072
sg21
I00
sg22
F0.97299999999999998
sg24
I01
sg25
F1.0269999999999999
sg27
I00
sbasg19
S'ZH135'
p3074
sba(iTools.Systematics.sys_classes
Sample
p3075
(dp3076
g15
(lp3077
(iTools.Systematics.sys_classes
Sys
p3078
(dp3079
g19
g40
sg21
I00
sg22
S'ATLAS_EL_SCALE_ZEE_DOWN'
p3080
sg24
I01
sg25
S'ATLAS_EL_SCALE_ZEE_UP'
p3081
sg27
I00
sba(iTools.Systematics.sys_classes
Sys
p3082
(dp3083
g19
g45
sg21
I00
sg22
S'ATLAS_EL_SCALE_R12_DOWN'
p3084
sg24
I01
sg25
S'ATLAS_EL_SCALE_R12_UP'
p3085
sg27
I00
sba(iTools.Systematics.sys_classes
Sys
p3086
(dp3087
g19
g50
sg21
I00
sg22
S'ATLAS_EL_SCALE_PS_DOWN'
p3088
sg24
I01
sg25
S'ATLAS_EL_SCALE_PS_UP'
p3089
sg27
I00
sba(iTools.Systematics.sys_classes
Sys
p3090
(dp3091
g19
g55
sg21
I00
sg22
S'ATLAS_EL_SCALE_LOWPT_DOWN'
p3092
sg24
I01
sg25
S'ATLAS_EL_SCALE_LOWPT_UP'
p3093
sg27
I00
sba(iTools.Systematics.sys_classes
Sys
p3094
(dp3095
g19
g60
sg21
I01
sg22
S'ATLAS_EL_RES_DOWN'
p3096
sg24
I01
sg25
S'ATLAS_EL_RES_UP'
p3097
sg27
I00
sba(iTools.Systematics.sys_classes
Sys
p3098
(dp3099
g19
g65
sg21
I01
sg22
S'ATLAS_EL_EFF_ID_DOWN'
p3100
sg24
I01
sg25
S'ATLAS_EL_EFF_ID_UP'
p3101
sg27
I00
sba(iTools.Systematics.sys_classes
Sys
p3102
(dp3103
g19
g70
sg21
I01
sg22
S'ATLAS_EL_EFF_ISO_DOWN'
p3104
sg24
I01
sg25
S'ATLAS_EL_EFF_ISO_UP'
p3105
sg27
I00
sba(iTools.Systematics.sys_classes
Sys
p3106
(dp3107
g19
g75
sg21
I01
sg22
S'ATLAS_EL_EFF_TRIG_DOWN'
p3108
sg24
I01
sg25
S'ATLAS_EL_EFF_TRIG_UP'
p3109
sg27
I00
sba(iTools.Systematics.sys_classes
Sys
p3110
(dp3111
g19
g80
sg21
I00
sg22
S'ATLAS_JER_2012_DOWN'
p3112
sg24
I01
sg25
S'ATLAS_JER_2012_UP'
p3113
sg27
I00
sba(iTools.Systematics.sys_classes
Sys
p3114
(dp3115
g19
g85
sg21
I00
sg22
S'ATLAS_JES_2012_Statistical1_DOWN'
p3116
sg24
I01
sg25
S'ATLAS_JES_2012_Statistical1_UP'
p3117
sg27
I00
sba(iTools.Systematics.sys_classes
Sys
p3118
(dp3119
g19
g90
sg21
I00
sg22
S'ATLAS_JES_2012_Modelling1_DOWN'
p3120
sg24
I01
sg25
S'ATLAS_JES_2012_Modelling1_UP'
p3121
sg27
I00
sba(iTools.Systematics.sys_classes
Sys
p3122
(dp3123
g19
g95
sg21
I00
sg22
S'ATLAS_JES_2012_Detector1_DOWN'
p3124
sg24
I01
sg25
S'ATLAS_JES_2012_Detector1_UP'
p3125
sg27
I00
sba(iTools.Systematics.sys_classes
Sys
p3126
(dp3127
g19
g100
sg21
I00
sg22
S'ATLAS_JES_2012_EtaModelling_DOWN'
p3128
sg24
I01
sg25
S'ATLAS_JES_2012_EtaModelling_UP'
p3129
sg27
I00
sba(iTools.Systematics.sys_classes
Sys
p3130
(dp3131
g19
g105
sg21
I00
sg22
S'ATLAS_JES_2012_Eta_StatMethod_DOWN'
p3132
sg24
I01
sg25
S'ATLAS_JES_2012_Eta_StatMethod_UP'
p3133
sg27
I00
sba(iTools.Systematics.sys_classes
Sys
p3134
(dp3135
g19
g110
sg21
I00
sg22
S'ATLAS_JES_2012_PileRho_TAU_DOWN'
p3136
sg24
I01
sg25
S'ATLAS_JES_2012_PileRho_TAU_UP'
p3137
sg27
I00
sba(iTools.Systematics.sys_classes
Sys
p3138
(dp3139
g19
g115
sg21
I00
sg22
S'ATLAS_JES_NPV_DOWN'
p3140
sg24
I01
sg25
S'ATLAS_JES_NPV_UP'
p3141
sg27
I00
sba(iTools.Systematics.sys_classes
Sys
p3142
(dp3143
g19
g120
sg21
I00
sg22
S'ATLAS_JES_Mu_DOWN'
p3144
sg24
I01
sg25
S'ATLAS_JES_Mu_UP'
p3145
sg27
I00
sba(iTools.Systematics.sys_classes
Sys
p3146
(dp3147
g19
g125
sg21
I00
sg22
S'ATLAS_JES_FlavComp_TAU_DOWN'
p3148
sg24
I01
sg25
S'ATLAS_JES_FlavComp_TAU_UP'
p3149
sg27
I00
sba(iTools.Systematics.sys_classes
Sys
p3150
(dp3151
g19
g130
sg21
I00
sg22
S'ATLAS_JES_FlavResp_DOWN'
p3152
sg24
I01
sg25
S'ATLAS_JES_FlavResp_UP'
p3153
sg27
I00
sba(iTools.Systematics.sys_classes
Sys
p3154
(dp3155
g19
g135
sg21
I00
sg22
S'ATLAS_JES_Flavb_DOWN'
p3156
sg24
I01
sg25
S'ATLAS_JES_Flavb_UP'
p3157
sg27
I00
sba(iTools.Systematics.sys_classes
Sys
p3158
(dp3159
g19
g140
sg21
I00
sg22
S'ATLAS_JVF_2012_DOWN'
p3160
sg24
I01
sg25
S'ATLAS_JVF_2012_UP'
p3161
sg27
I00
sba(iTools.Systematics.sys_classes
Sys
p3162
(dp3163
g19
g145
sg21
I00
sg22
S'ATLAS_MET_RESOSOFT_DOWN'
p3164
sg24
I01
sg25
S'ATLAS_MET_RESOSOFT_UP'
p3165
sg27
I00
sba(iTools.Systematics.sys_classes
Sys
p3166
(dp3167
g19
g150
sg21
I00
sg22
S'ATLAS_MET_SCALESOFT_DOWN'
p3168
sg24
I01
sg25
S'ATLAS_MET_SCALESOFT_UP'
p3169
sg27
I00
sba(iTools.Systematics.sys_classes
Sys
p3170
(dp3171
g19
g155
sg21
I00
sg22
S'ATLAS_MU_MS_DOWN'
p3172
sg24
I01
sg25
S'ATLAS_MU_MS_UP'
p3173
sg27
I00
sba(iTools.Systematics.sys_classes
Sys
p3174
(dp3175
g19
g160
sg21
I01
sg22
S'ATLAS_MU_EFF_ID_DOWN'
p3176
sg24
I01
sg25
S'ATLAS_MU_EFF_ID_UP'
p3177
sg27
I00
sba(iTools.Systematics.sys_classes
Sys
p3178
(dp3179
g19
g165
sg21
I01
sg22
S'ATLAS_MU_EFF_ISO_DOWN'
p3180
sg24
I01
sg25
S'ATLAS_MU_EFF_ISO_UP'
p3181
sg27
I00
sba(iTools.Systematics.sys_classes
Sys
p3182
(dp3183
g19
g170
sg21
I01
sg22
S'ATLAS_MU_EFF_TRIG_DOWN'
p3184
sg24
I01
sg25
S'ATLAS_MU_EFF_TRIG_UP'
p3185
sg27
I00
sba(iTools.Systematics.sys_classes
Sys
p3186
(dp3187
g19
g175
sg21
I01
sg22
S'ATLAS_PU_RESCALE_2012_DOWN'
p3188
sg24
I01
sg25
S'ATLAS_PU_RESCALE_2012_UP'
p3189
sg27
I00
sba(iTools.Systematics.sys_classes
Sys
p3190
(dp3191
g19
g180
sg21
I01
sg22
S'ATLAS_TAU_EFAKE_2012_DOWN'
p3192
sg24
I01
sg25
S'ATLAS_TAU_EFAKE_2012_UP'
p3193
sg27
I00
sba(iTools.Systematics.sys_classes
Sys
p3194
(dp3195
g19
g185
sg21
I01
sg22
S'ATLAS_TAU_ID_2012_DOWN'
p3196
sg24
I01
sg25
S'ATLAS_TAU_ID_2012_UP'
p3197
sg27
I00
sba(iTools.Systematics.sys_classes
Sys
p3198
(dp3199
g19
g190
sg21
I01
sg22
S'ATLAS_TAU_ID_STAT_2012_DOWN'
p3200
sg24
I01
sg25
S'ATLAS_TAU_ID_STAT_2012_UP'
p3201
sg27
I00
sba(iTools.Systematics.sys_classes
Sys
p3202
(dp3203
g19
g195
sg21
I00
sg22
S'ATLAS_TES_TRUE_2012_DOWN'
p3204
sg24
I01
sg25
S'ATLAS_TES_TRUE_2012_UP'
p3205
sg27
I00
sbasg198
(lp3206
(iTools.Systematics.sys_classes
Sys
p3207
(dp3208
g19
g202
sg21
I00
sg22
F0.96399999999999997
sg24
I01
sg25
F1.036
sg27
I00
sba(iTools.Systematics.sys_classes
Sys
p3209
(dp3210
g19
g205
sg21
I00
sg22
F0.97199999999999998
sg24
I01
sg25
F1.028
sg27
I00
sba(iTools.Systematics.sys_classes
Sys
p3211
(dp3212
g19
g2067
sg21
I00
sg22
F0.96399999999999997
sg24
I01
sg25
F1.036
sg27
I00
sba(iTools.Systematics.sys_classes
Sys
p3213
(dp3214
g19
g211
sg21
I00
sg22
F0.97899999999999998
sg24
I01
sg25
F1.0209999999999999
sg27
I00
sba(iTools.Systematics.sys_classes
Sys
p3215
(dp3216
g19
g2072
sg21
I00
sg22
F0.97299999999999998
sg24
I01
sg25
F1.0269999999999999
sg27
I00
sbasg19
S'ZH140'
p3217
sba(iTools.Systematics.sys_classes
Sample
p3218
(dp3219
g15
(lp3220
(iTools.Systematics.sys_classes
Sys
p3221
(dp3222
g19
g40
sg21
I00
sg22
S'ATLAS_EL_SCALE_ZEE_DOWN'
p3223
sg24
I01
sg25
S'ATLAS_EL_SCALE_ZEE_UP'
p3224
sg27
I00
sba(iTools.Systematics.sys_classes
Sys
p3225
(dp3226
g19
g45
sg21
I00
sg22
S'ATLAS_EL_SCALE_R12_DOWN'
p3227
sg24
I01
sg25
S'ATLAS_EL_SCALE_R12_UP'
p3228
sg27
I00
sba(iTools.Systematics.sys_classes
Sys
p3229
(dp3230
g19
g50
sg21
I00
sg22
S'ATLAS_EL_SCALE_PS_DOWN'
p3231
sg24
I01
sg25
S'ATLAS_EL_SCALE_PS_UP'
p3232
sg27
I00
sba(iTools.Systematics.sys_classes
Sys
p3233
(dp3234
g19
g55
sg21
I00
sg22
S'ATLAS_EL_SCALE_LOWPT_DOWN'
p3235
sg24
I01
sg25
S'ATLAS_EL_SCALE_LOWPT_UP'
p3236
sg27
I00
sba(iTools.Systematics.sys_classes
Sys
p3237
(dp3238
g19
g60
sg21
I01
sg22
S'ATLAS_EL_RES_DOWN'
p3239
sg24
I01
sg25
S'ATLAS_EL_RES_UP'
p3240
sg27
I00
sba(iTools.Systematics.sys_classes
Sys
p3241
(dp3242
g19
g65
sg21
I01
sg22
S'ATLAS_EL_EFF_ID_DOWN'
p3243
sg24
I01
sg25
S'ATLAS_EL_EFF_ID_UP'
p3244
sg27
I00
sba(iTools.Systematics.sys_classes
Sys
p3245
(dp3246
g19
g70
sg21
I01
sg22
S'ATLAS_EL_EFF_ISO_DOWN'
p3247
sg24
I01
sg25
S'ATLAS_EL_EFF_ISO_UP'
p3248
sg27
I00
sba(iTools.Systematics.sys_classes
Sys
p3249
(dp3250
g19
g75
sg21
I01
sg22
S'ATLAS_EL_EFF_TRIG_DOWN'
p3251
sg24
I01
sg25
S'ATLAS_EL_EFF_TRIG_UP'
p3252
sg27
I00
sba(iTools.Systematics.sys_classes
Sys
p3253
(dp3254
g19
g80
sg21
I00
sg22
S'ATLAS_JER_2012_DOWN'
p3255
sg24
I01
sg25
S'ATLAS_JER_2012_UP'
p3256
sg27
I00
sba(iTools.Systematics.sys_classes
Sys
p3257
(dp3258
g19
g85
sg21
I00
sg22
S'ATLAS_JES_2012_Statistical1_DOWN'
p3259
sg24
I01
sg25
S'ATLAS_JES_2012_Statistical1_UP'
p3260
sg27
I00
sba(iTools.Systematics.sys_classes
Sys
p3261
(dp3262
g19
g90
sg21
I00
sg22
S'ATLAS_JES_2012_Modelling1_DOWN'
p3263
sg24
I01
sg25
S'ATLAS_JES_2012_Modelling1_UP'
p3264
sg27
I00
sba(iTools.Systematics.sys_classes
Sys
p3265
(dp3266
g19
g95
sg21
I00
sg22
S'ATLAS_JES_2012_Detector1_DOWN'
p3267
sg24
I01
sg25
S'ATLAS_JES_2012_Detector1_UP'
p3268
sg27
I00
sba(iTools.Systematics.sys_classes
Sys
p3269
(dp3270
g19
g100
sg21
I00
sg22
S'ATLAS_JES_2012_EtaModelling_DOWN'
p3271
sg24
I01
sg25
S'ATLAS_JES_2012_EtaModelling_UP'
p3272
sg27
I00
sba(iTools.Systematics.sys_classes
Sys
p3273
(dp3274
g19
g105
sg21
I00
sg22
S'ATLAS_JES_2012_Eta_StatMethod_DOWN'
p3275
sg24
I01
sg25
S'ATLAS_JES_2012_Eta_StatMethod_UP'
p3276
sg27
I00
sba(iTools.Systematics.sys_classes
Sys
p3277
(dp3278
g19
g110
sg21
I00
sg22
S'ATLAS_JES_2012_PileRho_TAU_DOWN'
p3279
sg24
I01
sg25
S'ATLAS_JES_2012_PileRho_TAU_UP'
p3280
sg27
I00
sba(iTools.Systematics.sys_classes
Sys
p3281
(dp3282
g19
g115
sg21
I00
sg22
S'ATLAS_JES_NPV_DOWN'
p3283
sg24
I01
sg25
S'ATLAS_JES_NPV_UP'
p3284
sg27
I00
sba(iTools.Systematics.sys_classes
Sys
p3285
(dp3286
g19
g120
sg21
I00
sg22
S'ATLAS_JES_Mu_DOWN'
p3287
sg24
I01
sg25
S'ATLAS_JES_Mu_UP'
p3288
sg27
I00
sba(iTools.Systematics.sys_classes
Sys
p3289
(dp3290
g19
g125
sg21
I00
sg22
S'ATLAS_JES_FlavComp_TAU_DOWN'
p3291
sg24
I01
sg25
S'ATLAS_JES_FlavComp_TAU_UP'
p3292
sg27
I00
sba(iTools.Systematics.sys_classes
Sys
p3293
(dp3294
g19
g130
sg21
I00
sg22
S'ATLAS_JES_FlavResp_DOWN'
p3295
sg24
I01
sg25
S'ATLAS_JES_FlavResp_UP'
p3296
sg27
I00
sba(iTools.Systematics.sys_classes
Sys
p3297
(dp3298
g19
g135
sg21
I00
sg22
S'ATLAS_JES_Flavb_DOWN'
p3299
sg24
I01
sg25
S'ATLAS_JES_Flavb_UP'
p3300
sg27
I00
sba(iTools.Systematics.sys_classes
Sys
p3301
(dp3302
g19
g140
sg21
I00
sg22
S'ATLAS_JVF_2012_DOWN'
p3303
sg24
I01
sg25
S'ATLAS_JVF_2012_UP'
p3304
sg27
I00
sba(iTools.Systematics.sys_classes
Sys
p3305
(dp3306
g19
g145
sg21
I00
sg22
S'ATLAS_MET_RESOSOFT_DOWN'
p3307
sg24
I01
sg25
S'ATLAS_MET_RESOSOFT_UP'
p3308
sg27
I00
sba(iTools.Systematics.sys_classes
Sys
p3309
(dp3310
g19
g150
sg21
I00
sg22
S'ATLAS_MET_SCALESOFT_DOWN'
p3311
sg24
I01
sg25
S'ATLAS_MET_SCALESOFT_UP'
p3312
sg27
I00
sba(iTools.Systematics.sys_classes
Sys
p3313
(dp3314
g19
g155
sg21
I00
sg22
S'ATLAS_MU_MS_DOWN'
p3315
sg24
I01
sg25
S'ATLAS_MU_MS_UP'
p3316
sg27
I00
sba(iTools.Systematics.sys_classes
Sys
p3317
(dp3318
g19
g160
sg21
I01
sg22
S'ATLAS_MU_EFF_ID_DOWN'
p3319
sg24
I01
sg25
S'ATLAS_MU_EFF_ID_UP'
p3320
sg27
I00
sba(iTools.Systematics.sys_classes
Sys
p3321
(dp3322
g19
g165
sg21
I01
sg22
S'ATLAS_MU_EFF_ISO_DOWN'
p3323
sg24
I01
sg25
S'ATLAS_MU_EFF_ISO_UP'
p3324
sg27
I00
sba(iTools.Systematics.sys_classes
Sys
p3325
(dp3326
g19
g170
sg21
I01
sg22
S'ATLAS_MU_EFF_TRIG_DOWN'
p3327
sg24
I01
sg25
S'ATLAS_MU_EFF_TRIG_UP'
p3328
sg27
I00
sba(iTools.Systematics.sys_classes
Sys
p3329
(dp3330
g19
g175
sg21
I01
sg22
S'ATLAS_PU_RESCALE_2012_DOWN'
p3331
sg24
I01
sg25
S'ATLAS_PU_RESCALE_2012_UP'
p3332
sg27
I00
sba(iTools.Systematics.sys_classes
Sys
p3333
(dp3334
g19
g180
sg21
I01
sg22
S'ATLAS_TAU_EFAKE_2012_DOWN'
p3335
sg24
I01
sg25
S'ATLAS_TAU_EFAKE_2012_UP'
p3336
sg27
I00
sba(iTools.Systematics.sys_classes
Sys
p3337
(dp3338
g19
g185
sg21
I01
sg22
S'ATLAS_TAU_ID_2012_DOWN'
p3339
sg24
I01
sg25
S'ATLAS_TAU_ID_2012_UP'
p3340
sg27
I00
sba(iTools.Systematics.sys_classes
Sys
p3341
(dp3342
g19
g190
sg21
I01
sg22
S'ATLAS_TAU_ID_STAT_2012_DOWN'
p3343
sg24
I01
sg25
S'ATLAS_TAU_ID_STAT_2012_UP'
p3344
sg27
I00
sba(iTools.Systematics.sys_classes
Sys
p3345
(dp3346
g19
g195
sg21
I00
sg22
S'ATLAS_TES_TRUE_2012_DOWN'
p3347
sg24
I01
sg25
S'ATLAS_TES_TRUE_2012_UP'
p3348
sg27
I00
sbasg198
(lp3349
(iTools.Systematics.sys_classes
Sys
p3350
(dp3351
g19
g202
sg21
I00
sg22
F0.96699999999999997
sg24
I01
sg25
F1.0329999999999999
sg27
I00
sba(iTools.Systematics.sys_classes
Sys
p3352
(dp3353
g19
g205
sg21
I00
sg22
F0.97199999999999998
sg24
I01
sg25
F1.028
sg27
I00
sba(iTools.Systematics.sys_classes
Sys
p3354
(dp3355
g19
g2067
sg21
I00
sg22
F0.96199999999999997
sg24
I01
sg25
F1.038
sg27
I00
sba(iTools.Systematics.sys_classes
Sys
p3356
(dp3357
g19
g211
sg21
I00
sg22
F0.97899999999999998
sg24
I01
sg25
F1.0209999999999999
sg27
I00
sba(iTools.Systematics.sys_classes
Sys
p3358
(dp3359
g19
g2072
sg21
I00
sg22
F0.97299999999999998
sg24
I01
sg25
F1.0269999999999999
sg27
I00
sbasg19
S'ZH145'
p3360
sba(iTools.Systematics.sys_classes
Sample
p3361
(dp3362
g15
(lp3363
(iTools.Systematics.sys_classes
Sys
p3364
(dp3365
g19
g40
sg21
I00
sg22
S'ATLAS_EL_SCALE_ZEE_DOWN'
p3366
sg24
I01
sg25
S'ATLAS_EL_SCALE_ZEE_UP'
p3367
sg27
I00
sba(iTools.Systematics.sys_classes
Sys
p3368
(dp3369
g19
g45
sg21
I00
sg22
S'ATLAS_EL_SCALE_R12_DOWN'
p3370
sg24
I01
sg25
S'ATLAS_EL_SCALE_R12_UP'
p3371
sg27
I00
sba(iTools.Systematics.sys_classes
Sys
p3372
(dp3373
g19
g50
sg21
I00
sg22
S'ATLAS_EL_SCALE_PS_DOWN'
p3374
sg24
I01
sg25
S'ATLAS_EL_SCALE_PS_UP'
p3375
sg27
I00
sba(iTools.Systematics.sys_classes
Sys
p3376
(dp3377
g19
g55
sg21
I00
sg22
S'ATLAS_EL_SCALE_LOWPT_DOWN'
p3378
sg24
I01
sg25
S'ATLAS_EL_SCALE_LOWPT_UP'
p3379
sg27
I00
sba(iTools.Systematics.sys_classes
Sys
p3380
(dp3381
g19
g60
sg21
I01
sg22
S'ATLAS_EL_RES_DOWN'
p3382
sg24
I01
sg25
S'ATLAS_EL_RES_UP'
p3383
sg27
I00
sba(iTools.Systematics.sys_classes
Sys
p3384
(dp3385
g19
g65
sg21
I01
sg22
S'ATLAS_EL_EFF_ID_DOWN'
p3386
sg24
I01
sg25
S'ATLAS_EL_EFF_ID_UP'
p3387
sg27
I00
sba(iTools.Systematics.sys_classes
Sys
p3388
(dp3389
g19
g70
sg21
I01
sg22
S'ATLAS_EL_EFF_ISO_DOWN'
p3390
sg24
I01
sg25
S'ATLAS_EL_EFF_ISO_UP'
p3391
sg27
I00
sba(iTools.Systematics.sys_classes
Sys
p3392
(dp3393
g19
g75
sg21
I01
sg22
S'ATLAS_EL_EFF_TRIG_DOWN'
p3394
sg24
I01
sg25
S'ATLAS_EL_EFF_TRIG_UP'
p3395
sg27
I00
sba(iTools.Systematics.sys_classes
Sys
p3396
(dp3397
g19
g80
sg21
I00
sg22
S'ATLAS_JER_2012_DOWN'
p3398
sg24
I01
sg25
S'ATLAS_JER_2012_UP'
p3399
sg27
I00
sba(iTools.Systematics.sys_classes
Sys
p3400
(dp3401
g19
g85
sg21
I00
sg22
S'ATLAS_JES_2012_Statistical1_DOWN'
p3402
sg24
I01
sg25
S'ATLAS_JES_2012_Statistical1_UP'
p3403
sg27
I00
sba(iTools.Systematics.sys_classes
Sys
p3404
(dp3405
g19
g90
sg21
I00
sg22
S'ATLAS_JES_2012_Modelling1_DOWN'
p3406
sg24
I01
sg25
S'ATLAS_JES_2012_Modelling1_UP'
p3407
sg27
I00
sba(iTools.Systematics.sys_classes
Sys
p3408
(dp3409
g19
g95
sg21
I00
sg22
S'ATLAS_JES_2012_Detector1_DOWN'
p3410
sg24
I01
sg25
S'ATLAS_JES_2012_Detector1_UP'
p3411
sg27
I00
sba(iTools.Systematics.sys_classes
Sys
p3412
(dp3413
g19
g100
sg21
I00
sg22
S'ATLAS_JES_2012_EtaModelling_DOWN'
p3414
sg24
I01
sg25
S'ATLAS_JES_2012_EtaModelling_UP'
p3415
sg27
I00
sba(iTools.Systematics.sys_classes
Sys
p3416
(dp3417
g19
g105
sg21
I00
sg22
S'ATLAS_JES_2012_Eta_StatMethod_DOWN'
p3418
sg24
I01
sg25
S'ATLAS_JES_2012_Eta_StatMethod_UP'
p3419
sg27
I00
sba(iTools.Systematics.sys_classes
Sys
p3420
(dp3421
g19
g110
sg21
I00
sg22
S'ATLAS_JES_2012_PileRho_TAU_DOWN'
p3422
sg24
I01
sg25
S'ATLAS_JES_2012_PileRho_TAU_UP'
p3423
sg27
I00
sba(iTools.Systematics.sys_classes
Sys
p3424
(dp3425
g19
g115
sg21
I00
sg22
S'ATLAS_JES_NPV_DOWN'
p3426
sg24
I01
sg25
S'ATLAS_JES_NPV_UP'
p3427
sg27
I00
sba(iTools.Systematics.sys_classes
Sys
p3428
(dp3429
g19
g120
sg21
I00
sg22
S'ATLAS_JES_Mu_DOWN'
p3430
sg24
I01
sg25
S'ATLAS_JES_Mu_UP'
p3431
sg27
I00
sba(iTools.Systematics.sys_classes
Sys
p3432
(dp3433
g19
g125
sg21
I00
sg22
S'ATLAS_JES_FlavComp_TAU_DOWN'
p3434
sg24
I01
sg25
S'ATLAS_JES_FlavComp_TAU_UP'
p3435
sg27
I00
sba(iTools.Systematics.sys_classes
Sys
p3436
(dp3437
g19
g130
sg21
I00
sg22
S'ATLAS_JES_FlavResp_DOWN'
p3438
sg24
I01
sg25
S'ATLAS_JES_FlavResp_UP'
p3439
sg27
I00
sba(iTools.Systematics.sys_classes
Sys
p3440
(dp3441
g19
g135
sg21
I00
sg22
S'ATLAS_JES_Flavb_DOWN'
p3442
sg24
I01
sg25
S'ATLAS_JES_Flavb_UP'
p3443
sg27
I00
sba(iTools.Systematics.sys_classes
Sys
p3444
(dp3445
g19
g140
sg21
I00
sg22
S'ATLAS_JVF_2012_DOWN'
p3446
sg24
I01
sg25
S'ATLAS_JVF_2012_UP'
p3447
sg27
I00
sba(iTools.Systematics.sys_classes
Sys
p3448
(dp3449
g19
g145
sg21
I00
sg22
S'ATLAS_MET_RESOSOFT_DOWN'
p3450
sg24
I01
sg25
S'ATLAS_MET_RESOSOFT_UP'
p3451
sg27
I00
sba(iTools.Systematics.sys_classes
Sys
p3452
(dp3453
g19
g150
sg21
I00
sg22
S'ATLAS_MET_SCALESOFT_DOWN'
p3454
sg24
I01
sg25
S'ATLAS_MET_SCALESOFT_UP'
p3455
sg27
I00
sba(iTools.Systematics.sys_classes
Sys
p3456
(dp3457
g19
g155
sg21
I00
sg22
S'ATLAS_MU_MS_DOWN'
p3458
sg24
I01
sg25
S'ATLAS_MU_MS_UP'
p3459
sg27
I00
sba(iTools.Systematics.sys_classes
Sys
p3460
(dp3461
g19
g160
sg21
I01
sg22
S'ATLAS_MU_EFF_ID_DOWN'
p3462
sg24
I01
sg25
S'ATLAS_MU_EFF_ID_UP'
p3463
sg27
I00
sba(iTools.Systematics.sys_classes
Sys
p3464
(dp3465
g19
g165
sg21
I01
sg22
S'ATLAS_MU_EFF_ISO_DOWN'
p3466
sg24
I01
sg25
S'ATLAS_MU_EFF_ISO_UP'
p3467
sg27
I00
sba(iTools.Systematics.sys_classes
Sys
p3468
(dp3469
g19
g170
sg21
I01
sg22
S'ATLAS_MU_EFF_TRIG_DOWN'
p3470
sg24
I01
sg25
S'ATLAS_MU_EFF_TRIG_UP'
p3471
sg27
I00
sba(iTools.Systematics.sys_classes
Sys
p3472
(dp3473
g19
g175
sg21
I01
sg22
S'ATLAS_PU_RESCALE_2012_DOWN'
p3474
sg24
I01
sg25
S'ATLAS_PU_RESCALE_2012_UP'
p3475
sg27
I00
sba(iTools.Systematics.sys_classes
Sys
p3476
(dp3477
g19
g180
sg21
I01
sg22
S'ATLAS_TAU_EFAKE_2012_DOWN'
p3478
sg24
I01
sg25
S'ATLAS_TAU_EFAKE_2012_UP'
p3479
sg27
I00
sba(iTools.Systematics.sys_classes
Sys
p3480
(dp3481
g19
g185
sg21
I01
sg22
S'ATLAS_TAU_ID_2012_DOWN'
p3482
sg24
I01
sg25
S'ATLAS_TAU_ID_2012_UP'
p3483
sg27
I00
sba(iTools.Systematics.sys_classes
Sys
p3484
(dp3485
g19
g190
sg21
I01
sg22
S'ATLAS_TAU_ID_STAT_2012_DOWN'
p3486
sg24
I01
sg25
S'ATLAS_TAU_ID_STAT_2012_UP'
p3487
sg27
I00
sba(iTools.Systematics.sys_classes
Sys
p3488
(dp3489
g19
g195
sg21
I00
sg22
S'ATLAS_TES_TRUE_2012_DOWN'
p3490
sg24
I01
sg25
S'ATLAS_TES_TRUE_2012_UP'
p3491
sg27
I00
sbasg198
(lp3492
(iTools.Systematics.sys_classes
Sys
p3493
(dp3494
g19
g202
sg21
I00
sg22
F0.96899999999999997
sg24
I01
sg25
F1.03
sg27
I00
sba(iTools.Systematics.sys_classes
Sys
p3495
(dp3496
g19
g205
sg21
I00
sg22
F0.97199999999999998
sg24
I01
sg25
F1.028
sg27
I00
sba(iTools.Systematics.sys_classes
Sys
p3497
(dp3498
g19
g2067
sg21
I00
sg22
F0.96099999999999997
sg24
I01
sg25
F1.0389999999999999
sg27
I00
sba(iTools.Systematics.sys_classes
Sys
p3499
(dp3500
g19
g211
sg21
I00
sg22
F0.97899999999999998
sg24
I01
sg25
F1.0209999999999999
sg27
I00
sba(iTools.Systematics.sys_classes
Sys
p3501
(dp3502
g19
g2072
sg21
I00
sg22
F0.97299999999999998
sg24
I01
sg25
F1.0269999999999999
sg27
I00
sbasg19
S'ZH150'
p3503
sba(iTools.Systematics.sys_classes
Sample
p3504
(dp3505
g15
(lp3506
(iTools.Systematics.sys_classes
Sys
p3507
(dp3508
g19
g40
sg21
I00
sg22
S'ATLAS_EL_SCALE_ZEE_DOWN'
p3509
sg24
I01
sg25
S'ATLAS_EL_SCALE_ZEE_UP'
p3510
sg27
I00
sba(iTools.Systematics.sys_classes
Sys
p3511
(dp3512
g19
g45
sg21
I00
sg22
S'ATLAS_EL_SCALE_R12_DOWN'
p3513
sg24
I01
sg25
S'ATLAS_EL_SCALE_R12_UP'
p3514
sg27
I00
sba(iTools.Systematics.sys_classes
Sys
p3515
(dp3516
g19
g50
sg21
I00
sg22
S'ATLAS_EL_SCALE_PS_DOWN'
p3517
sg24
I01
sg25
S'ATLAS_EL_SCALE_PS_UP'
p3518
sg27
I00
sba(iTools.Systematics.sys_classes
Sys
p3519
(dp3520
g19
g55
sg21
I00
sg22
S'ATLAS_EL_SCALE_LOWPT_DOWN'
p3521
sg24
I01
sg25
S'ATLAS_EL_SCALE_LOWPT_UP'
p3522
sg27
I00
sba(iTools.Systematics.sys_classes
Sys
p3523
(dp3524
g19
g60
sg21
I01
sg22
S'ATLAS_EL_RES_DOWN'
p3525
sg24
I01
sg25
S'ATLAS_EL_RES_UP'
p3526
sg27
I00
sba(iTools.Systematics.sys_classes
Sys
p3527
(dp3528
g19
g65
sg21
I01
sg22
S'ATLAS_EL_EFF_ID_DOWN'
p3529
sg24
I01
sg25
S'ATLAS_EL_EFF_ID_UP'
p3530
sg27
I00
sba(iTools.Systematics.sys_classes
Sys
p3531
(dp3532
g19
g70
sg21
I01
sg22
S'ATLAS_EL_EFF_ISO_DOWN'
p3533
sg24
I01
sg25
S'ATLAS_EL_EFF_ISO_UP'
p3534
sg27
I00
sba(iTools.Systematics.sys_classes
Sys
p3535
(dp3536
g19
g75
sg21
I01
sg22
S'ATLAS_EL_EFF_TRIG_DOWN'
p3537
sg24
I01
sg25
S'ATLAS_EL_EFF_TRIG_UP'
p3538
sg27
I00
sba(iTools.Systematics.sys_classes
Sys
p3539
(dp3540
g19
g80
sg21
I00
sg22
S'ATLAS_JER_2012_DOWN'
p3541
sg24
I01
sg25
S'ATLAS_JER_2012_UP'
p3542
sg27
I00
sba(iTools.Systematics.sys_classes
Sys
p3543
(dp3544
g19
g85
sg21
I00
sg22
S'ATLAS_JES_2012_Statistical1_DOWN'
p3545
sg24
I01
sg25
S'ATLAS_JES_2012_Statistical1_UP'
p3546
sg27
I00
sba(iTools.Systematics.sys_classes
Sys
p3547
(dp3548
g19
g90
sg21
I00
sg22
S'ATLAS_JES_2012_Modelling1_DOWN'
p3549
sg24
I01
sg25
S'ATLAS_JES_2012_Modelling1_UP'
p3550
sg27
I00
sba(iTools.Systematics.sys_classes
Sys
p3551
(dp3552
g19
g95
sg21
I00
sg22
S'ATLAS_JES_2012_Detector1_DOWN'
p3553
sg24
I01
sg25
S'ATLAS_JES_2012_Detector1_UP'
p3554
sg27
I00
sba(iTools.Systematics.sys_classes
Sys
p3555
(dp3556
g19
g100
sg21
I00
sg22
S'ATLAS_JES_2012_EtaModelling_DOWN'
p3557
sg24
I01
sg25
S'ATLAS_JES_2012_EtaModelling_UP'
p3558
sg27
I00
sba(iTools.Systematics.sys_classes
Sys
p3559
(dp3560
g19
g105
sg21
I00
sg22
S'ATLAS_JES_2012_Eta_StatMethod_DOWN'
p3561
sg24
I01
sg25
S'ATLAS_JES_2012_Eta_StatMethod_UP'
p3562
sg27
I00
sba(iTools.Systematics.sys_classes
Sys
p3563
(dp3564
g19
g110
sg21
I00
sg22
S'ATLAS_JES_2012_PileRho_TAU_DOWN'
p3565
sg24
I01
sg25
S'ATLAS_JES_2012_PileRho_TAU_UP'
p3566
sg27
I00
sba(iTools.Systematics.sys_classes
Sys
p3567
(dp3568
g19
g115
sg21
I00
sg22
S'ATLAS_JES_NPV_DOWN'
p3569
sg24
I01
sg25
S'ATLAS_JES_NPV_UP'
p3570
sg27
I00
sba(iTools.Systematics.sys_classes
Sys
p3571
(dp3572
g19
g120
sg21
I00
sg22
S'ATLAS_JES_Mu_DOWN'
p3573
sg24
I01
sg25
S'ATLAS_JES_Mu_UP'
p3574
sg27
I00
sba(iTools.Systematics.sys_classes
Sys
p3575
(dp3576
g19
g125
sg21
I00
sg22
S'ATLAS_JES_FlavComp_TAU_DOWN'
p3577
sg24
I01
sg25
S'ATLAS_JES_FlavComp_TAU_UP'
p3578
sg27
I00
sba(iTools.Systematics.sys_classes
Sys
p3579
(dp3580
g19
g130
sg21
I00
sg22
S'ATLAS_JES_FlavResp_DOWN'
p3581
sg24
I01
sg25
S'ATLAS_JES_FlavResp_UP'
p3582
sg27
I00
sba(iTools.Systematics.sys_classes
Sys
p3583
(dp3584
g19
g135
sg21
I00
sg22
S'ATLAS_JES_Flavb_DOWN'
p3585
sg24
I01
sg25
S'ATLAS_JES_Flavb_UP'
p3586
sg27
I00
sba(iTools.Systematics.sys_classes
Sys
p3587
(dp3588
g19
g140
sg21
I00
sg22
S'ATLAS_JVF_2012_DOWN'
p3589
sg24
I01
sg25
S'ATLAS_JVF_2012_UP'
p3590
sg27
I00
sba(iTools.Systematics.sys_classes
Sys
p3591
(dp3592
g19
g145
sg21
I00
sg22
S'ATLAS_MET_RESOSOFT_DOWN'
p3593
sg24
I01
sg25
S'ATLAS_MET_RESOSOFT_UP'
p3594
sg27
I00
sba(iTools.Systematics.sys_classes
Sys
p3595
(dp3596
g19
g150
sg21
I00
sg22
S'ATLAS_MET_SCALESOFT_DOWN'
p3597
sg24
I01
sg25
S'ATLAS_MET_SCALESOFT_UP'
p3598
sg27
I00
sba(iTools.Systematics.sys_classes
Sys
p3599
(dp3600
g19
g155
sg21
I00
sg22
S'ATLAS_MU_MS_DOWN'
p3601
sg24
I01
sg25
S'ATLAS_MU_MS_UP'
p3602
sg27
I00
sba(iTools.Systematics.sys_classes
Sys
p3603
(dp3604
g19
g160
sg21
I01
sg22
S'ATLAS_MU_EFF_ID_DOWN'
p3605
sg24
I01
sg25
S'ATLAS_MU_EFF_ID_UP'
p3606
sg27
I00
sba(iTools.Systematics.sys_classes
Sys
p3607
(dp3608
g19
g165
sg21
I01
sg22
S'ATLAS_MU_EFF_ISO_DOWN'
p3609
sg24
I01
sg25
S'ATLAS_MU_EFF_ISO_UP'
p3610
sg27
I00
sba(iTools.Systematics.sys_classes
Sys
p3611
(dp3612
g19
g170
sg21
I01
sg22
S'ATLAS_MU_EFF_TRIG_DOWN'
p3613
sg24
I01
sg25
S'ATLAS_MU_EFF_TRIG_UP'
p3614
sg27
I00
sba(iTools.Systematics.sys_classes
Sys
p3615
(dp3616
g19
g175
sg21
I01
sg22
S'ATLAS_PU_RESCALE_2012_DOWN'
p3617
sg24
I01
sg25
S'ATLAS_PU_RESCALE_2012_UP'
p3618
sg27
I00
sba(iTools.Systematics.sys_classes
Sys
p3619
(dp3620
g19
g180
sg21
I01
sg22
S'ATLAS_TAU_EFAKE_2012_DOWN'
p3621
sg24
I01
sg25
S'ATLAS_TAU_EFAKE_2012_UP'
p3622
sg27
I00
sba(iTools.Systematics.sys_classes
Sys
p3623
(dp3624
g19
g185
sg21
I01
sg22
S'ATLAS_TAU_ID_2012_DOWN'
p3625
sg24
I01
sg25
S'ATLAS_TAU_ID_2012_UP'
p3626
sg27
I00
sba(iTools.Systematics.sys_classes
Sys
p3627
(dp3628
g19
g190
sg21
I01
sg22
S'ATLAS_TAU_ID_STAT_2012_DOWN'
p3629
sg24
I01
sg25
S'ATLAS_TAU_ID_STAT_2012_UP'
p3630
sg27
I00
sba(iTools.Systematics.sys_classes
Sys
p3631
(dp3632
g19
g195
sg21
I00
sg22
S'ATLAS_TES_TRUE_2012_DOWN'
p3633
sg24
I01
sg25
S'ATLAS_TES_TRUE_2012_UP'
p3634
sg27
I00
sbasg198
(lp3635
(iTools.Systematics.sys_classes
Sys
p3636
(dp3637
g19
g205
sg21
I00
sg22
F0.97199999999999998
sg24
I01
sg25
F1.028
sg27
I00
sbasg19
S'MC_ZHhh'
p3638
sba(iTools.Systematics.sys_classes
Sample
p3639
(dp3640
g15
(lp3641
(iTools.Systematics.sys_classes
Sys
p3642
(dp3643
g19
g1918
sg21
I01
sg22
S'ATLAS_TAU_FF_DOWN'
p3644
sg24
I01
sg25
S'ATLAS_TAU_FF_UP'
p3645
sg27
I00
sbasg198
(lp3646
sg19
S'AntitauEvents'
p3647
sbasg1923
g1924
sbasS'files'
p3648
(dp3649
sg19
S'EmmaSys'
p3650
sb.